
 XTALK

 Start     Length     Name                   Class
 0001:0000 0305EH     _TEXT                  CODE
 0002:0000 00EECH     _INIT                  CODE
 0003:0000 00E7CH     _COMMHI                CODE
 0004:0000 00DDAH     _COMMLO                CODE
 0005:0000 010EAH     _COMMDLG               CODE
 0006:0000 00058H     _SESSLO                CODE
 0007:0000 00608H     _SESSDLG               CODE
 0008:0000 00E48H     _TERMHI                CODE
 0009:0000 00546H     _TERMLO                CODE
 000A:0000 00DA8H     _TERMDLG               CODE
 000B:0000 0075CH     _COPY                  CODE
 000C:0000 0007CH     _DISPLO                CODE
 000D:0000 00936H     _DISPDLG               CODE
 000E:0000 00E98H     _XFERHI                CODE
 000F:0000 003F4H     _XFERLO                CODE
 0010:0000 01704H     _XFERDLG               CODE
 0011:0000 00EF9H     MACRO                  CODE
 0012:0000 00732H     MACRODLG               CODE
 0013:0000 00AD2H     _FONT                  CODE
 0014:0000 00ED8H     _GLOBAL                CODE
 0015:0000 0248AH     _VAR                   CODE
 0016:0000 007CCH     _CAPTURE               CODE
 0017:0000 00A0AH     _NRES0                 CODE
 0018:0000 01842H     _NRES1                 CODE
 0019:0000 04A6CH     _NRES2                 CODE
 001A:0000 01328H     _NRES4                 CODE
 001B:0000 00AB4H     _NRES6                 CODE
 001C:0000 012CEH     _NRES7                 CODE
 001D:0000 01312H     _NRES8                 CODE
 001E:0000 00F82H     _NRES9                 CODE
 001F:0000 00716H     _FUNCT                 CODE
 0020:0000 001BEH     _PERF1                 CODE
 0021:0000 00748H     _PERF2                 CODE
 0022:0000 016D2H     _COMPILE               CODE
 0023:0000 00980H     DLGBOX                 CODE
 0024:0000 00490H     DLGMSG                 CODE
 0025:0000 01354H     _EVAL                  CODE
 0026:0000 025FAH     _STRF                  CODE
 0027:0000 01230H     _INTF                  CODE
 0028:0000 0059AH     _ERROR                 CODE
 0029:0000 00316H     _VTLO                  CODE
 002A:0000 028FAH     _VTHI                  CODE
 002B:0000 012EEH     _VT52                  CODE
 002C:0000 00F2CH     _I3101                 CODE
 002D:0000 01230H     _PCIBM                 CODE
 002E:0000 00CEAH     _NCIS1                 CODE
 002F:0000 0073AH     _NCIS2                 CODE
 0030:0000 00C46H     _NDLG3                 CODE
 0031:0000 00672H     _NDLG4                 CODE
 0032:0000 0213EH     _DART                  CODE
 0033:0000 01557H     _CROSS                 CODE
 0034:0000 010F6H     _XFER2                 CODE
 0035:0000 0124CH     _XFER3                 CODE
 0036:0000 02052H     ZMODEM                 CODE
 0037:0000 00CC0H     _ASCII                 CODE
 0038:0000 004FCH     _XKRM1                 CODE
 0039:0000 0273EH     _XKRM2                 CODE
 003A:0000 00150H     _XKRM3                 CODE
 003B:0000 01938H     _XKRM4                 CODE
 003C:0000 00594H     _KRMWND                CODE
 003D:0000 011B0H     _QUICKB                CODE
 003E:0000 01166H     _STAT                  CODE
 003F:0000 00E3CH     _INFO                  CODE
 0040:0000 00228H     _INPT1                 CODE
 0041:0000 00318H     _NOTES                 CODE
 0042:0000 00724H     HELP                   CODE
 0043:0000 010C8H     LIBMISC                CODE
 0044:0000 007C8H     LIBFILE                CODE
 0045:0000 007FAH     CTLCOLOR               CODE
 0046:0000 004BCH     DOSOS2                 CODE
 0047:0000 00074H     ASMCODE                ASMCODE
 0048:0000 00010H     NULL                   BEGDATA
 0048:0010 015B6H     _DATA                  DATA
 0048:15C6 0000EH     CDATA                  DATA
 0048:15D4 00000H     XIFB                   DATA
 0048:15D4 00000H     XIF                    DATA
 0048:15D4 00000H     XIFE                   DATA
 0048:15D4 00000H     XIB                    DATA
 0048:15D4 00000H     XI                     DATA
 0048:15D4 00000H     XIE                    DATA
 0048:15D4 00000H     XPB                    DATA
 0048:15D4 00000H     XP                     DATA
 0048:15D4 00000H     XPE                    DATA
 0048:15D4 00000H     XCB                    DATA
 0048:15D4 00000H     XC                     DATA
 0048:15D4 00000H     XCE                    DATA
 0048:15D4 00000H     XCFB                   DATA
 0048:15D4 00000H     XCF                    DATA
 0048:15D4 00000H     XCFE                   DATA
 0048:15D4 00000H     CONST                  CONST
 0048:15E0 004C0H     _BSS                   BSS
 0048:1AA0 00000H     XOB                    BSS
 0048:1AA0 00000H     XO                     BSS
 0048:1AA0 00000H     XOE                    BSS
 0048:1AA0 05AA2H     c_common               BSS

 Origin   Group
 0048:0   DGROUP

 Address   Export                  Alias

 001E:0F2C AbortDlg                AbortDlg
 001E:0EE2 AbortProc               AbortProc
 002F:00FA CisWndProc              CisWndProc
 0045:00E6 CtlColorBarProc         CtlColorBarProc
 0002:0CA0 DlgAbout                DlgAbout
 0024:0058 DlgAlert                DlgAlert
 0037:0332 DlgASCII                DlgASCII
 0016:0564 DlgCapture              DlgCapture
 0005:011C DlgCommunications       DlgCommunications
 0022:150E DlgCompile              DlgCompile
 0033:05DE DlgCross                DlgCross
 0032:0574 DlgDart                 DlgDart
 001C:00B8 DlgDial                 DlgDial
 001C:0566 DlgDialing              DlgDialing
 000D:006E DlgDisplay              DlgDisplay
 0023:066E DlgDlgbox               DlgDlgbox
 0028:0176 DlgError                DlgError
 0019:0094 DlgExecute              DlgExecute
 0010:0474 DlgFileRequest          DlgFileRequest
 0030:00D6 DlgFnOpen               DlgFnOpen
 0031:00E8 DlgFnSaveAs             DlgFnSaveAs
 0030:0638 DlgFnSend               DlgFnSend
 0013:045E DlgFonts                DlgFonts
 0042:0106 DlgHelp1                DlgHelp1
 0042:02FE DlgHelp2                DlgHelp2
 0039:0000 DlgKermit               DlgKermit
 0012:006E DlgMacros               DlgMacros
 0005:0A5A DlgModem                DlgModem
 001D:0E44 DlgNewFile              DlgNewFile
 001C:1280 DlgNoPhone              DlgNoPhone
 0041:00A4 DlgNotes                DlgNotes
 001E:0838 DlgPageSetup            DlgPageSetup
 001E:08F6 DlgPrintSetup           DlgPrintSetup
 0010:01C0 DlgProtocol             DlgProtocol
 0010:0598 DlgProtocolAscii        DlgProtocolAscii
 0010:12F4 DlgProtocolCISB         DlgProtocolCISB
 0010:0C06 DlgProtocolCrosstalk    DlgProtocolCrosstalk
 0010:0E40 DlgProtocolDart         DlgProtocolDart
 0010:11AE DlgProtocolXModem       DlgProtocolXModem
 0010:14D6 DlgProtocolZmodem       DlgProtocolZmodem
 003D:02F0 DlgQuickB               DlgQuickB
 0002:0E16 DlgRunApp               DlgRunApp
 0007:007A DlgSession              DlgSession
 0005:0D28 DlgSetting              DlgSetting
 0014:0808 DlgSystem               DlgSystem
 000A:007A DlgTerminal             DlgTerminal
 0034:04DE DlgXModem               DlgXModem
 0035:0458 DlgYModem               DlgYModem
 0036:068A DlgZmodem               DlgZmodem
 0013:08F0 FontEnumFonts           FontEnumFonts
 0001:0A74 HelpMessageFilter       HelpMessageFilter
 0040:00F4 InputSubClass           InputSubClass
 003C:049E SubKermitProc           SubKermitProc
 002C:00E4 WndIBM3101Proc          WndIBM3101Proc
 003F:015C WndInfoProc             WndInfoProc
 003C:00E4 WndKermitProc           WndKermitProc
 0011:0000 WndMacroProc            WndMacroProc
 0001:02AC WndMainProc             WndMainProc
 002D:0198 WndPCIBMProc            WndPCIBMProc
 003E:00A2 WndStatProc             WndStatProc
 002E:0096 WndVidtexProc           WndVidtexProc
 002A:0000 WndVT102Proc            WndVT102Proc
 002B:00A2 WndVT52Proc             WndVT52Proc

  Address         Publics by Name

 0048:7532       AADVISEITEM
 0048:5432       AADVISEITEMS
 0048:21E2       AAPP
 001E:0F2C       AbortDlg
 001E:0EE2       AbortProc
 0039:0738       ABORTSERVER
 0039:22A8       ACKPACKET
 0039:22D8       ACKSPACKET
 0011:018E       ACTIVATEMACRO
 0000:0000  Imp  ADDFONTRESOURCE      (GDI.119)
 0018:1256       ADD_ADVISE
 0000:0000  Imp  ADJUSTWINDOWRECT     (USER.102)
 0018:15BC       ADVISE
 0018:0CD4       ADVISEDDE
 0018:14DE       ADVISED_ON
 0048:1242       ADV_LIST
 0048:5F2C       AFORMATS
 0048:5BE8       AINITAPP
 0048:3B52       AINITTOPIC
 0024:0000       ALERTINTERPRET
 0002:03A8       ANOTHERCOPYINIT
 0000:0000  Imp  ANSINEXT             (KERNEL.77)
 0000:0000  Imp  ANSIPREV             (KERNEL.78)
 0000:0000  Imp  ANSIUPPER            (KERNEL.79)
 0048:5F22       APOKEITEM
 0048:72D2       AREQUESTITEM
 001B:050C       ASKUSERMESSAGESTR
 0048:7290       ASTATUS
 0048:72CE       ASYSITEMS
 0048:6F22       ATOPIC
 0048:5590       ATOPICS
 0048:1C90       AUNADVISEITEM
 0048:57A8       BABORT
 0048:1C76       BCAPTUREON
 0048:21E4       BCARETDISABLED
 0048:5B56       BCONNECTED
 0048:6F46       BCURFONTCHARSET
 0048:5F24       BDEBUGDDE
 0048:1C92       BDEBUGEMULATION
 0048:57D5       BDEBUGKERMIT
 0048:7086       BDEBUGSCRIPT
 0048:1D08       BDEBUGXFER
 0048:1C44       BDIRECTION
 0048:5F84       BDISPLAYON
 0000:0000  Imp  BEGINPAINT           (USER.39)
 0048:0266       BHELPACTIVE
 0048:7322       BHELPTOPIC
 0000:0000  Imp  BITBLT               (GDI.34)
 0048:5A84       BKERMITNONSERVER
 0048:5BA8       BKEYIN
 0048:5420       BKEYOUT
 0048:5218       BPRINTERON
 0048:7540       BPRINTERROR
 0048:55B2       BSAVEORIGIN
 0048:5A80       BSAVEWRAP
 0048:5B54       BTERMALTCUR
 0048:5B66       BTERMALTKEY
 0048:732A       BTERMAUTOPRINT
 0048:5F94       BTERMCNTLPRINT
 0048:1C34       BTERMECHO
 0048:3B74       BTERMESCAPE
 0048:541E       BTERMFEEDPRINT
 0048:6EB6       BTERMINSERT
 0048:5592       BTERMLCKKEY
 0048:21DE       BTERMLFCR
 0048:6ED4       BTERMMODEPRINT
 0048:3B56       BTERMNOAUTOREPEAT
 0048:5E30       BTERMORIGIN
 0048:21E6       BTERMPFLG
 0048:223E       BTERMQFLG
 0048:3BB0       BTERMREVR
 0048:2084       BTERMTABS
 0048:5F2E       BTERMWRAP
 0048:3BA2       BYSCROLLBARHEIGHT
 0048:6F18       BYSCROLLBARWIDTH
 0000:0000  Imp  CALLWINDOWPROC       (USER.122)
 001B:06A8       CANCELMESSAGE
 0016:040E       CAPTURECHARS
 0048:1AA0       CBROOTNAMEMAX
 0048:5E36       CCOMMPORT
 0048:5430       CDEFINPUTFILE
 0048:5582       CDEFOUTPUTFILE
 0000:0000  Imp  CHANGEMENU           (USER.153)
 0043:010A       CHANGEMENUMSG
 0043:0142       CHANGEMENUMSG1
 0043:019C       CHANGEMENUTEXT
 0048:5584       CHARPRINTHEIGHT
 0048:224A       CHARPRINTWIDTH
 0008:0E14       CHARTOTERMINAL
 0000:0000  Imp  CHECKDLGBUTTON       (USER.97)
 0000:0000  Imp  CHECKMENUITEM        (USER.154)
 0000:0000  Imp  CHECKRADIOBUTTON     (USER.96)
 0001:2C80       chkstk
 0048:04E2       CHRATTRCOLOR
 0048:2082       CICONMODE
 0048:5E2E       CICONTYPE
 002F:00FA       CisWndProc
 0000:0000  Imp  CLEARCOMMBREAK       (USER.211)
 0000:0000  Imp  CLOSECLIPBOARD       (USER.138)
 0000:0000  Imp  CLOSECOMM            (USER.207)
 001E:04DA       CLOSEPRINTER
 0048:55B8       CMACROROW
 0048:3B54       CMACROROWS
 0002:0C32       CMDABOUT
 0010:052A       CMDASCII
 0003:01D4       CMDBREAK
 0016:0000       CMDCAPTURE
 0005:0000       CMDCOMMUNICATIONS
 0003:0000       CMDCONNECT
 000B:0000       CMDCOPY
 000B:0160       CMDCOPYCAPTURE
 000B:01FE       CMDCOPYFILE
 000B:037A       CMDCOPYNOTES
 000B:0496       CMDCOPYPRINTER
 000B:0548       CMDCOPYSEND
 001C:0000       CMDDIAL
 000D:0000       CMDDISPLAY
 0019:0000       CMDEXECUTE
 0002:0AFE       CMDEXIT
 0013:03F0       CMDFONTS
 0042:0000       CMDHELPINDEX
 0042:007C       CMDHELPTOPIC
 0038:0000       CMDKERMIT
 0012:0000       CMDMACROS
 0005:006E       CMDMODEM
 001D:0000       CMDNEW
 0041:0000       CMDNOTES
 001D:0188       CMDOPEN
 001E:0000       CMDPAGESETUP
 001B:08B4       CMDPASTE
 001B:09A6       CMDPASTEUPLOAD
 0003:01C0       CMDPAUSE
 001B:0776       CMDPLAYBACK
 001E:006E       CMDPRINT
 001E:0086       CMDPRINTSETUP
 0010:0000       CMDPROTOCOL
 000E:0B16       CMDRECEIVE
 0002:0D74       CMDRUNAPP
 001D:034C       CMDSAVE
 001D:049C       CMDSAVEAS
 0008:0000       CMDSCREEN
 000E:0AFC       CMDSEND
 0007:0000       CMDSESSION
 0014:079A       CMDSYSTEM
 000A:0000       CMDTERMINAL
 000E:0B30       CMDXFER
 0048:1C3E       CNUMBERLOOP
 0048:5BAC       COMDCB
 0048:3BB2       COMM
 0003:0DAE       COMMBUFFIL
 0003:0454       COMMCHAROUTPUT
 0003:0406       COMMDATAOUTPUT
 0003:034C       COMMDATAREAD
 0003:01F0       COMMDATASTATUS
 0003:0A1A       COMMFLUSHBUFFERS
 0003:0D7E       COMMPORTBREAK
 0003:0B9A       COMMPORTCLOSE
 0003:0AF2       COMMPORTDUMP
 0003:05D0       COMMPORTOPEN
 0003:086E       COMMPORTUPDATE
 0003:0482       COMMSTROUTPUT
 0028:008C       COMPILERERROR
 0022:037C       COMPILESCRIPT
 000F:01E4       COMPUTEFILESTOSEND
 0048:552E       COMSTAT
 0000:0000  Imp  COPYRECT             (USER.74)
 0048:57DA       CPRINTBUF
 0048:0EDE       CRCTAB
 0048:05F4       CRC_TABLE
 0000:0000  Imp  CREATEBITMAP         (GDI.48)
 0000:0000  Imp  CREATECARET          (USER.163)
 0000:0000  Imp  CREATECOMPATIBLEDC   (GDI.52)
 0000:0000  Imp  CREATEDC             (GDI.53)
 0000:0000  Imp  CREATEDIALOG         (USER.89)
 0000:0000  Imp  CREATEFONT           (GDI.56)
 0000:0000  Imp  CREATEFONTINDIRECT   (GDI.57)
 0000:0000  Imp  CREATEIC             (GDI.153)
 003F:0000       CREATEINFOCHILD
 0040:0000       CREATEINPUTCHILD
 003C:0000       CREATEKERMITCHILD
 0011:0B08       CREATEMACROCHILD
 0043:06A8       CREATEPATH
 0000:0000  Imp  CREATEPEN            (GDI.61)
 0000:0000  Imp  CREATESOLIDBRUSH     (GDI.66)
 003E:0000       CREATESTATUSCHILD
 0009:0000       CREATETERMINALCHILD
 0015:01BA       CREATEVARIABLEHANDLE
 0000:0000  Imp  CREATEWINDOW         (USER.41)
 000F:02BA       CREATEXFERFILE
 0048:5AA8       CTERMATTR
 0048:5E1E       CTERMBUF
 0048:7328       CTERMFONTATTR
 0048:5AAD       CTERMFONTCOLOR
 0048:218A       CTERMLEDS
 0045:00E6       CtlColorBarProc
 0048:3B9A       CZMODEMSEQ
 001D:0BE0       DATAAUTOOPEN
 001D:06A8       DATACHANGED
 001D:06C0       DATADIALLOAD
 0048:6F4C       DATAFILESTRUCT
 001D:0098       DATANEW
 001D:029C       DATAOPEN
 001D:087C       DATAPARAMLOAD
 001D:09F4       DATAPARAMSAVE
 001D:03CE       DATASAVE
 001D:0568       DATASAVEAS
 001D:0806       DATASAVEFIRST
 0048:5BEC       DCOMMBUFFER
 0039:23C8       DECODEBUFFDATA
 0000:0000  Imp  DEFWINDOWPROC        (USER.107)
 0000:0000  Imp  DELETEDC             (GDI.68)
 0000:0000  Imp  DELETEOBJECT         (GDI.69)
 0015:031A       DELETEVARIABLEHANDLE
 0000:0000  Imp  DESTROYCARET         (USER.164)
 003F:006C       DESTROYINFOCHILD
 0040:00C8       DESTROYINPUTCHILD
 003C:00B6       DESTROYKERMITCHILD
 0011:0B70       DESTROYMACROCHILD
 003E:0076       DESTROYSTATUSCHILD
 0009:00C4       DESTROYTERMINALCHILD
 0000:0000  Imp  DESTROYWINDOW        (USER.53)
 001C:0396       DIALNUMBER
 0000:0000  Imp  DIALOGBOX            (USER.87)
 0000:0000  Imp  DIALOGBOXINDIRECT    (USER.218)
 0048:0010       DIALOGCNT
 0048:732E       DIALOGS
 001C:0442       DIALTERM
 0048:5598       DISP
 0001:0A34       DISPATCHDIALOGMESSAGE
 0000:0000  Imp  DISPATCHMESSAGE      (USER.114)
 0002:0CA0       DlgAbout
 0030:0AD6       DLGADDCORRECTEXTENSION
 0031:0556       DLGADDEXT
 0024:0058       DlgAlert
 0037:0332       DlgASCII
 0023:0000       DLGBOXINTERPRET
 0016:0564       DlgCapture
 0030:0BCA       DLGCHECKFILENAME
 0030:0A8C       DLGCHECKOKENABLE
 0005:011C       DlgCommunications
 0022:150E       DlgCompile
 0033:05DE       DlgCross
 0032:0574       DlgDart
 001C:00B8       DlgDial
 001C:0566       DlgDialing
 0000:0000  Imp  DLGDIRLIST           (USER.100)
 0000:0000  Imp  DLGDIRSELECT         (USER.99)
 000D:006E       DlgDisplay
 0023:066E       DlgDlgbox
 0028:0176       DlgError
 0019:0094       DlgExecute
 0010:0474       DlgFileRequest
 0030:00D6       DlgFnOpen
 0031:00E8       DlgFnSaveAs
 0030:0638       DlgFnSend
 0013:045E       DlgFonts
 0042:0106       DlgHelp1
 0042:02FE       DlgHelp2
 0031:03FA       DLGINITSAVEAS
 0039:0000       DlgKermit
 0012:006E       DlgMacros
 0031:05EC       DLGMERGESTRINGS
 0005:0A5A       DlgModem
 001D:0E44       DlgNewFile
 001C:1280       DlgNoPhone
 0041:00A4       DlgNotes
 0030:0000       DLGOPEN
 001E:0838       DlgPageSetup
 0031:04F0       DLGPFILEINPATH
 001E:08F6       DlgPrintSetup
 0010:01C0       DlgProtocol
 0010:0598       DlgProtocolAscii
 0010:12F4       DlgProtocolCISB
 0010:0C06       DlgProtocolCrosstalk
 0010:0E40       DlgProtocolDart
 0010:11AE       DlgProtocolXModem
 0010:14D6       DlgProtocolZmodem
 003D:02F0       DlgQuickB
 0002:0E16       DlgRunApp
 0031:0000       DLGSAVEAS
 0030:0C12       DLGSEARCHSPEC
 0030:0568       DLGSEND
 0007:007A       DlgSession
 0005:0D28       DlgSetting
 0014:0808       DlgSystem
 000A:007A       DlgTerminal
 0034:04DE       DlgXModem
 0035:0458       DlgYModem
 0036:068A       DlgZmodem
 0046:0430       DOSCHDIR
 0046:0000       DOSCHGFILEPTR
 0046:0160       DOSCLOSE
 0046:0324       DOSCOPY
 0046:0192       DOSDELETE
 0046:01D2       DOSMOVE
 0046:022E       DOSOPEN
 0046:0470       DOSQCURDIR
 0046:0064       DOSQFILEINFO
 0046:02B4       DOSREAD
 0046:02EC       DOSWRITE
 0000:0000  Imp  DRAWICON             (USER.84)
 0000:0000  Imp  DRAWMENUBAR          (USER.160)
 0000:0000  Imp  DRAWTEXT             (USER.85)
 0048:2242       DWXFERCURRBYTES
 0048:1C38       DWXFERTOTALBYTES
 001B:0000       EDITSCRIPT
 0000:0000  Imp  EMPTYCLIPBOARD       (USER.139)
 002C:0A36       EMULATORIBM3101KEY
 002D:0C90       EMULATORPCIBMKEY
 002E:07FE       EMULATORVIDTEXKEY
 002A:0FFE       EMULATORVT102KEY
 002B:09F8       EMULATORVT52KEY
 0000:0000  Imp  ENABLEMENUITEM       (USER.155)
 0000:0000  Imp  ENABLEWINDOW         (USER.34)
 0000:0000  Imp  ENDDIALOG            (USER.88)
 0000:0000  Imp  ENDPAINT             (USER.40)
 0000:0000  Imp  ENUMFONTS            (GDI.70)
 001B:0610       ERRORMESSAGE
 001B:05C0       ERRORMSG
 0028:04C6       ERRORTOMSG
 0000:0000  Imp  ESCAPE               (GDI.38)
 0000:0000  Imp  ESCAPECOMMFUNCTION   (USER.214)
 0025:0000       EVALBOOLEAN
 0025:0086       EVALCHANNEL
 0025:09D2       EVALCOMMA
 0025:08C8       EVALCTLFLAGS
 0025:0A02       EVALEOL
 0025:0116       EVALINTEGER
 0027:0000       EVALINTFUNCT
 0025:06D4       EVALINTINTINTINT
 0025:076A       EVALINTINTINTINTSTR
 0025:07BC       EVALINTVAR
 0025:0194       EVALINTVARIABLE
 0025:0250       EVALRANGE
 0026:0000       EVALSTRFUNCT
 0025:02D0       EVALSTRING
 0025:0842       EVALSTRVAR
 0025:0566       EVALSTRVARIABLE
 0025:0622       EVALTIME
 0019:0982       EXECUTECLOSESCRIPT
 0018:0BF6       EXECUTEDDE
 0019:07D4       EXECUTESCRIPT
 0048:6EBA       EXTPRINTLEADING
 0000:0000  Imp  EXTTEXTOUT           (GDI.351)
 0048:0196       FALWAYSCOMPILE
 001B:072A       FATALERROR
 0000:0000  Imp  FATALEXIT            (KERNEL.1)
 0048:5424       FAUTOAPPEND
 0048:554C       FAUTOBACKUP
 0048:521A       FBACKUPS
 0048:1C9E       FCAPSLOCK
 0048:6F16       FCAPTUREPAUSE
 0048:0818       FCODESAVE
 0048:6F1E       FCOMMBUFERR
 0048:1AA4       FCOMMSTATEXOFF
 0048:5AAC       FCOMMSTSRLSD
 0048:1C96       FCOMMSTSXON
 0048:1AA5       FCOMPILEONLY
 0048:3BA6       FCONNECTARQ
 0048:6F17       FDATACHANGED
 0048:5AA9       FDEMOPAUSE
 0048:5866       FDEMOSTEP
 0048:6F3C       FFILEFLAGS
 0048:1C72       FHIDEXFERWINDOW
 0048:6ED0       FHOSTSCRIPT
 001F:06AC       FILECLOSE
 0048:57AA       FILEFIND
 001F:052C       FILEGETREC
 001F:0000       FILEOPEN
 001F:05C0       FILEPUTREC
 001F:00DC       FILEREAD
 001F:02EC       FILEREADLINE
 001F:063E       FILESEEK
 001F:0402       FILEWRITE
 001F:0496       FILEWRITELINE
 0048:3D64       FILEXFER
 0000:0000  Imp  FILLRECT             (USER.81)
 0000:0000  Imp  FINDRESOURCE         (KERNEL.60)
 0002:0000       FIRSTCOPYINIT
 0048:5AAA       FISACTIVE
 0011:041E       FLASHMACRO
 0000:0000  Imp  FLASHWINDOW          (USER.105)
 0048:1C97       FLOWRESDISPLAY
 0016:0450       FLUSHCAPTUREBUF
 0000:0000  Imp  FLUSHCOMM            (USER.215)
 001E:0240       FLUSHPRINTER
 0048:728C       FMANUALDIAL
 0048:5E37       FMAXIMIZED
 0048:51EE       FMENUMODE
 0048:5E38       FMONODISPLAY
 0048:1C78       FMOUSECURSOR
 0048:1CF6       FMOUSEDOWN
 0048:728B       FNUMSLOCK
 0048:5534       FONT
 0013:08F0       FontEnumFonts
 0048:5862       FPASTECRLF
 0048:554A       FPAUSEON
 0000:0000  Imp  FREELIBRARY          (KERNEL.96)
 0000:0000  Imp  FREEPROCINSTANCE     (KERNEL.52)
 0000:0000  Imp  FREERESOURCE         (KERNEL.63)
 0048:2248       FSECRET
 0048:5B58       FSELECTEDAREA
 0048:04DF       FTERMCARETACTIVE
 0048:04DE       FTERMFOCUSACTIVE
 0048:728A       FTERMGRAPHICSON
 0048:04E0       FTERMPAUSE
 0048:5863       FTERMVT52MODE
 0048:7538       FTIMEOUT
 0048:5F25       FUNTITLED
 0048:7304       FVT102FONT
 0048:5F28       FXFERCHANGEDCOMM
 0048:554E       FXFERDIRECTION
 0028:0000       GENERALERROR
 0000:0000  Imp  GETACTIVEWINDOW      (USER.60)
 0000:0000  Imp  GETBITMAPBITS        (GDI.74)
 0016:04E2       GETCAPTUREFILE
 0000:0000  Imp  GETCARETBLINKTIME    (USER.169)
 0000:0000  Imp  GETCLIENTRECT        (USER.33)
 0000:0000  Imp  GETCLIPBOARDDATA     (USER.142)
 0045:0034       GETCOLORBAR
 0000:0000  Imp  GETCOMMERROR         (USER.203)
 0000:0000  Imp  GETCOMMEVENTMASK     (USER.209)
 0000:0000  Imp  GETCOMMSTATE         (USER.202)
 0000:0000  Imp  GETCURRENTTIME       (USER.15)
 0000:0000  Imp  GETDC                (USER.66)
 0000:0000  Imp  GETDEVICECAPS        (GDI.80)
 0000:0000  Imp  GETDLGITEM           (USER.91)
 0043:04D2       GETDLGITEMDATA
 0000:0000  Imp  GETDLGITEMINT        (USER.95)
 0043:0510       GETDLGITEMPATH
 0000:0000  Imp  GETDLGITEMTEXT       (USER.93)
 0000:0000  Imp  GETFOCUS             (USER.23)
 0000:0000  Imp  GETINSTANCEDATA      (KERNEL.54)
 0015:0636       GETINTVARIABLE
 0000:0000  Imp  GETKEYBOARDSTATE     (USER.222)
 0000:0000  Imp  GETKEYSTATE          (USER.106)
 0000:0000  Imp  GETMENU              (USER.157)
 0000:0000  Imp  GETMENUITEMCOUNT     (USER.263)
 0000:0000  Imp  GETMENUSTRING        (USER.161)
 0000:0000  Imp  GETMESSAGE           (USER.108)
 0000:0000  Imp  GETMODULEFILENAME    (KERNEL.49)
 0000:0000  Imp  GETMODULEHANDLE      (KERNEL.47)
 0000:0000  Imp  GETOBJECT            (GDI.82)
 0039:1838       GETOURPARAMS
 0000:0000  Imp  GETPARENT            (USER.46)
 0000:0000  Imp  GETPROCADDRESS       (KERNEL.50)
 0044:006E       GETPROFILEDATA
 0000:0000  Imp  GETPROFILEINT        (KERNEL.57)
 0000:0000  Imp  GETPROFILESTRING     (KERNEL.58)
 0000:0000  Imp  GETSCROLLRANGE       (USER.65)
 0000:0000  Imp  GETSTOCKOBJECT       (GDI.87)
 0015:09EC       GETSTRLENGTH
 0015:08DC       GETSTRVARIABLE
 0000:0000  Imp  GETSUBMENU           (USER.159)
 0000:0000  Imp  GETSYSCOLOR          (USER.180)
 0000:0000  Imp  GETSYSTEMMENU        (USER.156)
 0000:0000  Imp  GETSYSTEMMETRICS     (USER.179)
 0015:0F42       GETSYSVARIABLEANY
 0000:0000  Imp  GETTEMPFILENAME      (KERNEL.97)
 0000:0000  Imp  GETTEXTEXTENT        (GDI.91)
 0000:0000  Imp  GETTEXTFACE          (GDI.92)
 0000:0000  Imp  GETTEXTMETRICS       (GDI.93)
 0015:03A4       GETVARIABLEHANDLE
 0015:0A4E       GETVARIABLELEVEL
 0000:0000  Imp  GETVERSION           (KERNEL.3)
 001A:006C       GETVIDLINE
 0000:0000  Imp  GETWINDOWLONG        (USER.135)
 0000:0000  Imp  GETWINDOWRECT        (USER.32)
 0000:0000  Imp  GETWINDOWTEXT        (USER.36)
 0000:0000  Imp  GETWINDOWWORD        (USER.133)
 0000:0000  Imp  GLOBALADDATOM        (USER.268)
 0000:0000  Imp  GLOBALALLOC          (KERNEL.15)
 0000:0000  Imp  GLOBALCOMPACT        (KERNEL.25)
 0000:0000  Imp  GLOBALDELETEATOM     (USER.269)
 0000:0000  Imp  GLOBALFINDATOM       (USER.270)
 0000:0000  Imp  GLOBALFREE           (KERNEL.17)
 0000:0000  Imp  GLOBALGETATOMNAME    (USER.271)
 0000:0000  Imp  GLOBALLOCK           (KERNEL.18)
 0000:0000  Imp  GLOBALREALLOC        (KERNEL.16)
 0000:0000  Imp  GLOBALSIZE           (KERNEL.20)
 0000:0000  Imp  GLOBALUNLOCK         (KERNEL.19)
 0019:4512       GOTOLABEL
 0000:0000  Imp  GRAYSTRING           (USER.185)
 0048:5B64       HABORTDLGWND
 0048:7300       HACCELTABLE
 0048:5DEE       HADVISEMEM
 0048:0994       HCHILDINFO
 0048:0A1C       HCHILDINPUT
 0048:0810       HCHILDMACRO
 0048:091E       HCHILDSTATUS
 0048:050A       HCHILDTERMINAL
 0048:57A6       HCOMPDLG
 0048:728E       HCURFONT
 0048:7306       HDEMOFILE
 0001:0A74       HelpMessageFilter
 0048:6EB8       HEXECUTECMD
 0048:1C7A       HFILEHANDLES
 0048:5AA6       HHANDLEDATA
 0048:3B50       HICONFONT
 0000:0000  Imp  HIDECARET            (USER.166)
 000F:0014       HIDEFILETRANSFER
 0048:5DF2       HINFOCONFMENU
 0048:542E       HINFOEDITMENU
 0048:57A0       HINFOFILEMENU
 0048:0222       HINFOFONT
 0048:5672       HINFOHELPMENU
 0048:5F20       HINFOSESSMENU
 0048:1C98       HINFOUSERMENU
 0048:5F8E       HINFOWINDMENU
 0048:1168       HKERMITCHILD
 0048:0224       HMACROFONT
 0048:0A46       HNOTEDLG
 0048:08F0       HOBJECTCODE
 0048:5588       HPCIBMFONTS
 0048:5A82       HPOKEMEM
 0048:5F82       HPRINTDC
 0048:3B70       HSYSFONT
 0048:1C58       HTERMINALDC
 0048:5B5C       HVARIABLEDATA
 0048:5BC8       HVSSPAGES
 0048:5A86       HVT102FONTS
 0048:57D8       HWND
 0048:55BC       HWNDDDES
 0048:1C9A       HWNDINST
 0048:6F20       HWNDMENU
 0048:5864       HXFERDLG
 002C:0636       IBM3101CHAROUT
 002C:0000       IBM3101INIT
 002C:00D0       IBM3101TERM
 001B:02C4       ICONTEXTCHANGED
 0015:0E3A       IDENTIFYVARIABLE
 0019:491C       IFENDOFLINE
 003F:0098       INFODISPLAY
 003F:00F2       INFODISPLAYMSG
 001B:06F4       INFOMESSAGE
 0000:0000  Imp  INITAPP              (USER.5)
 002F:0000       INITCISGH
 0004:0000       INITCOMMUNICATIONS
 001D:0C14       INITDATA
 0018:08C6       INITDDE
 000C:0000       INITDISPLAY
 000F:0000       INITFILETRANSFER
 0013:0000       INITFONT
 0014:0000       INITGLOBAL
 0018:0988       INITIATEDDE
 0038:024A       INITKERMIT
 0011:0B9C       INITMACRO
 0020:0162       INITPERFORMANCE
 001E:07F4       INITPRINTER
 000F:00B6       INITPROTOCOL
 0006:0000       INITSESSION
 001D:0B04       INITSYSTEMNEWDATA
 0000:0000  Imp  INITTASK             (KERNEL.91)
 0009:04C8       INITTERMINAL
 0015:0000       INITVARIABLE
 001A:0000       INITVIDEO
 000E:0000       INITXFERINDICATORS
 0040:00F4       InputSubClass
 0002:0460       INSTANCEINIT
 0047:0004       INT21FUNCTION4B
 0019:0B8A       INTERPRETERCONTINUE
 0028:00EE       INTERPRETERERROR
 0019:0DD0       INTERPRETERKEYBOARD
 0019:0A06       INTERPRETERSTART
 0019:0B08       INTERPRETERSTOP
 0000:0000  Imp  INVALIDATERECT       (USER.125)
 0048:3B7A       IOSTATUS
 0000:0000  Imp  ISDIALOGMESSAGE      (USER.90)
 0000:0000  Imp  ISDLGBUTTONCHECKED   (USER.98)
 0044:01A0       ISDRIVEREADY
 0044:03D4       ISENOUGHDISKSPACE
 0000:0000  Imp  ISICONIC             (USER.31)
 0044:014E       ISPATHAVAILABLE
 0015:0AFC       ISSTRVARIABLE
 0000:0000  Imp  ISWINDOWENABLED      (USER.35)
 0000:0000  Imp  ISWINDOWVISIBLE      (USER.49)
 0039:25C8       KERMITCLOSE
 003B:0000       KERMITCOMMAND
 0003:0156       KERMITCONNECT
 003A:00EA       KERMITCONVERT
 003A:0000       KERMITFILENAME
 0039:26B6       KERMITFILL
 0039:2658       KERMITFLUSH
 0039:19DE       KERMITGETFILE
 0003:0198       KERMITHANGUP
 0039:18FC       KERMITMESSAGE
 0039:2552       KERMITOPEN
 0039:1A5A       KERMITRECEIVE
 0039:1996       KERMITREMOTEMESSAGE
 0039:1ACA       KERMITSENDFILE
 0039:2716       KERMITUNGET
 0039:0576       KERMITUSERABORT
 0000:0000  Imp  KILLTIMER            (USER.12)
 0043:094A       LIBASCTOBIN
 0043:08D0       LIBBINTOASC
 0043:0E9E       LIBDELAY
 0043:02BC       LIBDESTORE
 0043:03E8       LIBENSTORE
 0043:0C74       LIBFILTERSTRING
 0044:0672       LIBGETLINE
 0043:09BA       LIBSTRTOINT
 0048:5F88       LICONPARM1
 0048:6018       LICONPARM2
 0000:0000  Imp  LINETO               (GDI.19)
 0008:0DAC       LINETOTERMINAL
 0017:094E       LINKDIALOG
 0043:07F6       LMEMCMP
 0043:084C       LMEMCPY
 0043:0898       LMEMSET
 0000:0000  Imp  LOADACCELERATORS     (USER.177)
 0000:0000  Imp  LOADBITMAP           (USER.175)
 0000:0000  Imp  LOADCURSOR           (USER.173)
 0004:07D2       LOADCUSTOMPARAMETERS
 0014:0058       LOADGLOBALDATA
 0000:0000  Imp  LOADICON             (USER.174)
 0000:0000  Imp  LOADLIBRARY          (KERNEL.95)
 0004:01D0       LOADMODEMPARAMETERS
 0000:0000  Imp  LOADRESOURCE         (KERNEL.61)
 0022:0134       LOADSCRIPTOBJECT
 0000:0000  Imp  LOADSTRING           (USER.176)
 0000:0000  Imp  LOCALALLOC           (KERNEL.5)
 0000:0000  Imp  LOCALFREE            (KERNEL.7)
 0000:0000  Imp  LOCALREALLOC         (KERNEL.6)
 0000:0000  Imp  LOCKRESOURCE         (KERNEL.62)
 0000:0000  Imp  LOCKSEGMENT          (KERNEL.23)
 0015:0A8E       LOCKVARIABLE
 0036:162A       LONG_TO_DATETIME
 0036:1C28       LONG_TO_OCTAL
 0048:1D58       LPABORTDLG
 0048:55B4       LPABORTPROC
 0048:5594       LPCOMMEVENT
 0048:1C8A       LPCOMPDLG
 0048:5F90       LPHANDLEDATA
 0048:7324       LPHELPMESSAGEFILTER
 0048:3B9E       LPNOTEDLG
 0048:55AE       LPOBJECTCODE
 0048:1AA6       LPVARIABLEDATA
 0048:546A       LPVSSPAGES
 0048:5E40       LPXFERDLG
 0000:0000  Imp  LSTRCMP              (KERNEL.87)
 0000:0000  Imp  LSTRCPY              (KERNEL.88)
 0000:0000  Imp  LSTRLEN              (KERNEL.90)
 0048:753C       LTIMECONNECTED
 0048:7078       LTIMEINITSENT
 0048:026A       LTIMELASTRECV
 0048:552A       LXFERBYTECHECK
 0048:5E3A       LXFERFILEBYTES
 0048:5E32       LXFERFILESIZE
 0048:6436       MACRO
 0000:0000  Imp  MAKEPROCINSTANCE     (KERNEL.51)
 0000:0000  Imp  MESSAGEBEEP          (USER.104)
 0000:0000  Imp  MESSAGEBOX           (USER.1)
 0048:734E       MODEM
 0003:0B4E       MODEMRESET
 0008:0BE0       MOUSESELECTCLR
 0008:087A       MOUSESELECTMSG
 0000:0000  Imp  MOVETO               (GDI.20)
 0000:0000  Imp  MOVEWINDOW           (USER.56)
 0048:7080       NCAPTUREINX
 0048:21E0       NCHANNEL
 0048:7082       NCOMMBUFCNT
 0048:3BA4       NCOMMCOUNT
 0048:5860       NCOMMEVENT
 0048:3BAA       NCOMMFRAMINGERRORS
 0048:7302       NCOMMID
 0048:1C42       NCOMMOVERRUNERRORS
 0048:5F2A       NCOMMPARITYERRORS
 0048:57A4       NCOMMPORTMEMORY
 0048:5426       NCOMMSTSTIME
 0048:7320       NCOMMTIMERDELAY
 0048:3BAE       NCOMMWORKINX
 0048:3B96       NCONNECTSPEED
 0048:5B62       NCUREMULATOR
 0048:5E3E       NCURFONTHEIGHT
 0048:72FE       NCURFONTWIDTH
 0048:7084       NCURSORATX
 0048:7292       NCURSORATY
 0048:72D0       NCURSORTOX
 0048:731A       NCURSORTOY
 0048:7318       NDDESESSIONS
 0022:0000       NEEDCOMPILE
 0048:1C36       NERRORCODE
 0048:1C8E       NERRORFLAG
 0048:5B60       NERRORSAVE
 000C:001A       NEWDISPLAYDATA
 0013:02FC       NEWFONTDATA
 0011:0BB6       NEWMACRODATA
 000F:00D0       NEWPROTOCOLDATA
 0006:001A       NEWSESSIONDATA
 0009:04E2       NEWTERMINALDATA
 0048:1CA6       NFILEMODES
 0048:57D6       NGOSUBINX
 0048:601C       NHORZRES
 0048:7534       NICONRATE
 0048:1CBE       NICONTEXTX
 0048:1D56       NICONTEXTY
 0048:5BC6       NINITCHANNEL
 0048:3B78       NKERMITMODE
 0048:1D0A       NKERMITSTATUS
 0048:7308       NKEYBUFFER
 0048:542A       NMOUSEATX
 0048:5466       NMOUSEATY
 0048:521C       NPRINTLINENO
 0048:5468       NPRINTPAGENO
 0048:1C3C       NPRINTX
 0048:1C46       NPRINTY
 0048:2260       NPRIVIDPAGE
 0048:6ED2       NREQUESTVAR
 0048:6F1C       NRESPONSELEN
 0048:5586       NSAVEATTR
 0048:1D30       NSAVECHRX
 0048:1D52       NSAVECHRY
 0048:5422       NSAVECSET
 0048:732C       NSAVEERASE
 0048:731C       NSCROLLMEMORY
 0048:55AC       NSCROLLTYPE
 0048:1C5A       NSELECTX1
 0048:1C70       NSELECTX2
 0048:1C5C       NSELECTY1
 0048:1C74       NSELECTY2
 0048:1CA0       NSTACK
 0048:1CA2       NSTACKADDR
 0048:21E8       NSTACKHIGH
 0048:1C48       NSYSFONTHEIGHT
 0048:3B98       NSYSFONTWIDTH
 0048:3BA8       NTERMCHRX
 0048:3BAC       NTERMCHRY
 0048:3B58       NTERMCS
 0048:5B5E       NTERMCSET
 0048:1D54       NTERMERASE
 0048:6F4A       NTERMEXTX
 0048:707C       NTERMEXTY
 0048:5ECC       NTERMINX
 0048:3B76       NTERMMARGINBOT
 0048:3B8C       NTERMMARGINTOP
 0048:2246       NTERMMAXCOL
 0048:5428       NTERMOFFX
 0048:542C       NTERMOFFY
 0048:6420       NTERMWNDX
 0048:6434       NTERMWNDY
 0048:3B9C       NTERMWORKINX
 0048:5BAA       NVERTRES
 0048:5DEC       NVIDCARETWIDTH
 0048:1CBC       NVSSCURLINECNT
 0048:2080       NVSSCURLINEPOS
 0048:707E       NVSSFIRSTLINEINX
 0048:6EBE       NVSSLASTLINEINX
 0048:51EC       NVSSLASTLINELEN
 0048:3B72       NVSSPAGESUSED
 0048:224C       NWORKCHOICE
 0048:5B52       NXFERBLOCKSIZE
 0048:6016       NXFERRCVWAIT
 0048:5E44       OFSTRTEMP
 0000:0000  Imp  OPENCLIPBOARD        (USER.137)
 0000:0000  Imp  OPENCOMM             (USER.200)
 0000:0000  Imp  OPENFILE             (KERNEL.74)
 001E:02CC       OPENPRINTER
 000F:03C8       OPENXFERFILE
 0039:1FCE       PACKETTIMEOUT
 000E:0962       PAINTXFERGRAPHICS
 0000:0000  Imp  PATBLT               (GDI.29)
 0000:0008  Abs  pAtomTable
 002D:0000       PCIBMINIT
 002D:0094       PCIBMTERM
 0048:203E       PCLTOEDIT
 0048:1C40       PCOMMBUFPTR
 0000:0000  Imp  PEEKMESSAGE          (USER.109)
 0048:7536       PFP
 0048:2188       PFPSAVE
 0048:1C56       PFS
 0048:225E       PFTCB
 0047:0046       PINT21FUNCTION4B
 0000:0006  Abs  PLOCALHEAP
 0048:731E       POFSTR
 0018:0A50       POKEDDE
 0000:0000  Imp  POSTMESSAGE          (USER.110)
 0000:0000  Imp  POSTQUITMESSAGE      (USER.6)
 0048:5550       PPRIVIDLINE
 001E:015A       PRINTCHAR
 001E:0196       PRINTLINE
 0018:0000       PROCESSDDE
 0002:0B20       PROGRAMABORT
 0002:0B68       PROGRAMWRAPUP
 0000:000E  Abs  pStackBot
 0000:000C  Abs  pStackMin
 0000:000A  Abs  pStackTop
 0048:601E       PSZAPPNAME
 0048:5DF0       PSZEXT
 0048:6F1A       PSZNEWNAME
 0015:0B4A       PURGEVARIABLELEVEL
 0015:16C0       PUTSYSVARIABLEANY
 0039:0A64       RCVATTR
 0039:0B38       RCVDATA
 0039:0DE2       RCVEOF
 0039:0906       RCVFILE
 0039:0884       RCVINIT
 0039:1068       RCVPAR
 0039:111C       RCVSERVERCOMMAND
 0039:08B0       RCVSTART
 0039:0A3E       RCVTEXT
 0039:0866       RCVYPAR
 0000:0000  Imp  READCOMM             (USER.204)
 0004:0088       READMODEMPARAMETERS
 0039:1C50       RECEIVEPACKET
 0000:0000  Imp  RECTANGLE            (GDI.27)
 0000:0000  Imp  REGISTERCLASS        (USER.57)
 0045:005A       REGISTERCOLORBARCONTROL
 0000:0000  Imp  RELEASECAPTURE       (USER.19)
 0000:0000  Imp  RELEASEDC            (USER.68)
 0018:140E       REMOVE_ADVISE
 0018:155C       REMOVE_ALL_ADVISE
 0018:0B40       REQUESTDDE
 0039:1136       REQUESTFILECOMMAND
 0039:2360       RERECEIVE
 0039:2318       RESEND
 0013:0260       RESETFONT
 001B:04A8       RESETSCREENDISPLAY
 0017:00CC       RESETSYSTEMSTATUS
 000E:00B4       RESETXFERINDICATORS
 003D:0F56       RESUMEXFERFILE
 0048:1CB8       RGBOPENSAVE
 0048:5164       RGBOPENTEMP
 0048:0004       rsrvptrs
 0004:0ACC       SAVECUSTOMPARAMETERS
 0014:0328       SAVEGLOBALDATA
 0004:04DE       SAVEMODEMPARAMETERS
 0022:0280       SAVESCRIPTOBJECT
 0048:3B60       SCOMMFILENAME
 0048:6EC0       SCOMMWORKNAME
 0018:0E8A       SCRIPTENDDDE
 0000:0000  Imp  SCROLLWINDOW         (USER.61)
 0044:06FC       SEEKTOENDOFFILE
 0000:0000  Imp  SELECTOBJECT         (GDI.45)
 0009:042C       SELECTTERMINAL
 0039:1422       SENDANOTHER
 0039:14DA       SENDATTR
 0036:0052       SENDCOMMCHARS
 0039:14F2       SENDDATA
 0018:1732       SENDDDEADVDATA
 0018:0EBC       SENDDDEDATA
 0000:0000  Imp  SENDDLGITEMMESSAGE   (USER.101)
 0039:1620       SENDEOB
 0039:157C       SENDEOF
 0039:144E       SENDHEADER
 0000:0000  Imp  SENDMESSAGE          (USER.111)
 0039:2032       SENDPACKET
 0039:200A       SENDPACKETX
 0039:13B2       SENDSTART
 0039:1438       SENDSTARTACK
 0048:5867       SESS
 0000:0000  Imp  SETBITMAPBITS        (GDI.106)
 0000:0000  Imp  SETBKCOLOR           (GDI.1)
 0000:0000  Imp  SETBKMODE            (GDI.2)
 0000:0000  Imp  SETCAPTURE           (USER.18)
 0000:0000  Imp  SETCARETBLINKTIME    (USER.168)
 0000:0000  Imp  SETCARETPOS          (USER.165)
 0000:0000  Imp  SETCLIPBOARDDATA     (USER.141)
 0045:0000       SETCOLORBAR
 0000:0000  Imp  SETCOMMBREAK         (USER.210)
 0000:0000  Imp  SETCOMMEVENTMASK     (USER.208)
 0000:0000  Imp  SETCOMMSTATE         (USER.201)
 0044:04C6       SETDIRPATH
 0043:0592       SETDLGITEMDATA
 0000:0000  Imp  SETDLGITEMINT        (USER.94)
 0043:05CC       SETDLGITEMLENGTH
 0043:05F8       SETDLGITEMLONG
 0043:0636       SETDLGITEMPATH
 001B:00CE       SETDLGITEMSTR
 0000:0000  Imp  SETDLGITEMTEXT       (USER.92)
 0000:0000  Imp  SETERRORMODE         (KERNEL.107)
 0044:0612       SETFILEPATH
 0000:0000  Imp  SETFOCUS             (USER.22)
 0044:05DC       SETFULLPATH
 0015:0496       SETINTVARIABLE
 0000:0000  Imp  SETKEYBOARDSTATE     (USER.223)
 0044:0652       SETPATH
 0044:0632       SETPATHFILE
 0000:0000  Imp  SETROP2              (GDI.4)
 0043:0CC2       SETSCROLLLOCK
 0000:0000  Imp  SETSCROLLPOS         (USER.62)
 0000:0000  Imp  SETSCROLLRANGE       (USER.64)
 0015:069C       SETSTRVARIABLE
 0017:0000       SETSYSTEMSTATUS
 0000:0000  Imp  SETTEXTCOLOR         (GDI.9)
 0000:0000  Imp  SETTIMER             (USER.10)
 0000:0000  Imp  SETWINDOWLONG        (USER.136)
 0000:0000  Imp  SETWINDOWSHOOK       (USER.121)
 0000:0000  Imp  SETWINDOWTEXT        (USER.37)
 0000:0000  Imp  SETWINDOWWORD        (USER.134)
 0000:0000  Imp  SHOWCARET            (USER.167)
 0000:0000  Imp  SHOWWINDOW           (USER.42)
 0048:5B68       SINFOMESSAGE
 0039:082A       SNDINIT
 0039:0E9A       SNDPAR
 0043:0000       SPAWNAPP
 0048:1214       SPRINTGATE
 0048:1216       SPRINTTERM
 0018:0E56       STATUSDDE
 0048:224E       STERMFILENAME
 0048:6424       STERMWORKNAME
 0048:15B4       STKHQQ
 0000:0000  Imp  STRETCHBLT           (GDI.35)
 0044:0478       STRIPNAME
 0044:0436       STRIPPATH
 0043:00C8       STRRIGHTTRIM
 003C:049E       SubKermitProc
 0048:6EBC       SVERSION
 0048:1B2A       SVSSCURLINEBUF
 0048:5F26       SVSSOLDLINEPOS
 001B:01CA       SYSTEMUPDATE
 0048:1CF8       SZAPPNAME
 0048:1D32       SZAPPTITLE
 0048:5674       SZCAPTUREBUF
 0048:6F2C       SZCAPTURENAME
 0048:1D6C       SZCWD
 0048:3B7C       SZDATACURFILE
 0048:6FD4       SZDLGMSG
 0048:1DEC       SZECF
 0048:72A4       SZEDITOR
 0048:218C       SZEOF
 0048:3CC0       SZEXT
 0048:5580       SZEXTSAVE
 0048:5B5A       SZFILENAMESAVE
 0048:5F30       SZFILENAMETEMP
 0048:21EC       SZFNF
 0048:5764       SZHELPPATH
 0048:6F24       SZICONTEXT
 0048:3D12       SZIFN
 0048:5DF4       SZLDNUMBER
 0048:6ED6       SZMANUALNUMBER
 0048:1D0E       SZMATCHEDSTRING
 0048:55CE       SZMSG
 0048:6020       SZNOTES
 0048:51EF       SZOUTNUMBER
 0048:1C4C       SZPRINTDATE
 0048:1C66       SZPRINTTIME
 0048:5B00       SZREF
 0048:1D0C       SZRESPONSEBUF
 0048:5AAE       SZSCC
 0048:5754       SZSCRIPTNAME
 0048:72D4       SZSTARTUPSCRIPT
 0048:5ECE       SZTEMPNAME
 0048:1AAA       SZXFERFILEPATH
 0048:204E       SZXTALKEXEPATH
 001B:0566       TELLUSERMESSAGESTR
 0048:56FC       TERM
 0048:3B8E       TERMCLIENT
 0004:0074       TERMCOMMUNICATIONS
 0018:0962       TERMDDE
 000F:00A2       TERMFILETRANSFER
 0013:0234       TERMFONT
 0048:57A2       TERMINAL
 0008:00E4       TERMINALVIRTUALKEY
 0018:0F90       TERMINATEDDE
 002A:0BFA       TERMINPUT
 0038:0430       TERMKERMIT
 001B:089C       TERMMACROCHECK
 0008:0D28       TERMMESSAGE
 0008:0C72       TERMNAMESCAN
 0020:017C       TERMPERFORMANCE
 001E:0816       TERMPRINTER
 002A:2688       TERMRESET
 002A:2846       TERMSETUP
 0015:017C       TERMVARIABLE
 0008:003E       TERMWRITEBYTE
 0008:00B6       TERMWRITECLEAR
 0008:0014       TERMWRITEDATA
 0008:0072       TERMWRITENEWLINE
 0000:0000  Imp  TEXTOUT              (GDI.33)
 0041:0018       TOGGLENOTES
 001E:00F4       TOGGLEPRINTER
 0000:0000  Imp  TRANSLATEACCELERATOR (USER.178)
 0000:0000  Imp  TRANSLATEMESSAGE     (USER.113)
 001B:0118       TRANSLATETOKEN
 0018:0DA4       UNADVISEDDE
 0017:097C       UNLINKDIALOG
 0000:0000  Imp  UNLOCKSEGMENT        (KERNEL.24)
 0015:0ACC       UNLOCKVARIABLE
 0018:16F8       UPCASE
 0036:00B8       UPDATEERRORCOUNT
 0013:0324       UPDATEFONT
 0011:0BF4       UPDATEMACRO
 0009:033A       UPDATENEWTERMINAL
 000F:0176       UPDATEPROTOCOL
 0009:013C       UPDATETERMINAL
 0009:03E4       UPDATETERMINALFONT
 001B:01F0       UPDATETITLE
 0000:0000  Imp  UPDATEWINDOW         (USER.124)
 000E:03C6       UPDATEXFERINDICATORS
 0044:0256       VALIDATEDISKDRIVE
 0044:02DA       VALIDATEPATH
 0000:0000  Imp  VALIDATERECT         (USER.127)
 001A:077E       VIDCLEARAREA
 001A:05F6       VIDCLEARPAGE
 001A:0F16       VIDCLICKANDPICK
 0048:1C5E       VIDCLIENT
 001A:125C       VIDCREATECARET
 001A:12EE       VIDDELETECARET
 001A:04F2       VIDDELETECHARS
 001A:03DE       VIDINSERTCHARS
 001A:1312       VIDNAMESCAN
 001A:0CCC       VIDSCROLL
 001A:027C       VIDSCROLLDOWN
 001A:008A       VIDSCROLLUP
 001A:0C5C       VIDSEEME
 001A:1016       VIDSELECTAREA
 001A:11AA       VIDSETCARETPOS
 002E:0478       VIDTEXCHAROUT
 002E:0000       VIDTEXINIT
 002E:0082       VIDTEXTERM
 001A:0930       VIDUPDATESIZE
 0021:0188       VSSADDLINE
 0020:0000       VSSCREATE
 0020:00FC       VSSDELETE
 0021:03DE       VSSGETLINE
 0021:06E4       VSSGOTOBOT
 0021:067A       VSSGOTOTOP
 0021:04EA       VSSSCROLLDOWN
 0021:0000       VSSSCROLLMODE
 0021:0144       VSSSCROLLTOGGLE
 0021:05AE       VSSSCROLLUP
 002A:0822       VT102CHARDBL
 002A:0656       VT102CHAROUT
 0029:00E4       VT102CREATEFONTS
 0029:0112       VT102DELETEFONTS
 0029:0000       VT102INIT
 0029:00BA       VT102TERM
 0029:016A       VT102UPDATEFONTS
 002B:05F4       VT52CHAROUT
 002B:0000       VT52INIT
 002B:008E       VT52TERM
 0048:6F44       WADDR
 0000:0000  Imp  WAITEVENT            (KERNEL.30)
 001B:065C       WARNINGMESSAGE
 0048:1C94       WCARETBLINKTIME
 0048:1AA2       WFIRSTFREE
 0048:7294       WGOSUBADDR
 0048:1D5C       WGOSUBLINE
 0048:1C9C       WHANDLES
 0048:1C4A       WHELPDIALOG
 0048:2240       WHELPMENU
 0048:1CB6       WHELPTOPIC
 0043:0494       WHICHRADIOBUTTON
 0000:0000  Imp  WINHELP              (USER.171)
 0001:0012       WINMAIN
 0048:1CBA       WLINE
 002C:00E4       WndIBM3101Proc
 003F:015C       WndInfoProc
 003C:00E4       WndKermitProc
 0011:0000       WndMacroProc
 0001:02AC       WndMainProc
 002D:0198       WndPCIBMProc
 003E:00A2       WndStatProc
 002E:0096       WndVidtexProc
 002A:0000       WndVT102Proc
 002B:00A2       WndVT52Proc
 0000:0000  Imp  WRITECOMM            (USER.205)
 0044:00C6       WRITEPROFILEDATA
 0000:0000  Imp  WRITEPROFILESTRING   (KERNEL.59)
 0016:0346       WRITERAWTOCAPTURE
 0016:038E       WRITESTRTOCAPTURE
 0048:2108       WSTACKADDR
 0048:54AA       WSTACKLINE
 0048:5F96       WSTACKTYPE
 0048:6F48       WSYSTEM
 0048:6422       WSYSTEMSTATE
 0048:753A       WVIDCARETBLINKTIME
 0048:7088       WXFERBLOCKCOUNT
 0048:21EA       WXFERCONSECERRORS
 0048:5F86       WXFERCURRFILES
 0048:5BEA       WXFERLASTERROR
 0048:5F8C       WXFERTOTALERRORS
 0048:1CA4       WXFERTOTALFILES
 0048:1CC0       XFER
 0037:024C       XFERASCIITERM
 0037:018E       XFERASCIIUPLOADFILE
 0037:0000       XFERASCIIUPLOADNAME
 0033:01A4       XFERCROSSRECVNAME
 0033:0000       XFERCROSSSENDNAME
 0033:0362       XFERCROSSSERVER
 0033:04EE       XFERCROSSTERM
 0032:01C0       XFERDARTRECVNAME
 0032:0000       XFERDARTSENDNAME
 0032:035C       XFERDARTSERVER
 0032:0478       XFERDARTTERM
 000E:0DD0       XFERDOWNLOADFILE
 0010:0168       XFERFILEREQUEST
 0038:016A       XFERKERMITRECVNAME
 0038:01E0       XFERKERMITREQUESTNAME
 0038:006A       XFERKERMITSENDNAME
 003D:00C0       XFERQUICKBRECVNAME
 003D:0000       XFERQUICKBSENDNAME
 003D:00F2       XFERQUICKBSTART
 003D:0228       XFERQUICKBTERM
 000E:0C80       XFERUPLOADBATCH
 000E:0D1E       XFERUPLOADFILE
 0034:01FC       XFERXMODEMRECVNAME
 0034:0000       XFERXMODEMSENDNAME
 0034:03EE       XFERXMODEMTERM
 0035:01D2       XFERYMODEMRECVNAME
 0035:0000       XFERYMODEMSENDNAME
 0035:0368       XFERYMODEMTERM
 0036:02A6       XFERZMODEMRECVNAME
 0036:00F8       XFERZMODEMSENDNAME
 0044:0000       XLATERROR
 0017:0662       XTALKPAINT
 0017:03A8       XTALKSIZE
 0000:0000  Imp  YIELD                (KERNEL.29)
 0036:0000       ZMODEMCLOSEFILE
 0001:22F0       _asctime
 0001:0CE6       _atol
 0001:22B2       _bdos
 0001:11B9       _chdir
 0001:2C80       _chkstk
 0001:0EDC       _ctime
 0048:1406       _daylight
 0048:15E0       _edata
 0000:0000  Abs  _end
 0048:1288       _environ
 0048:1261       _errno
 0001:0C20       _exit
 0001:0DB6       _filelength
 0001:2D62       _free
 0001:28B8       _getcwd
 0001:0D10       _getenv
 0001:238E       _gmtime
 0001:0E1C       _intdos
 0001:0E66       _intdosx
 0001:0CEA       _itoa
 0000:0000  Imp  _LCLOSE              (KERNEL.81)
 0000:0000  Imp  _LLSEEK              (KERNEL.84)
 0001:0F06       _localtime
 0000:0000  Imp  _LOPEN               (KERNEL.85)
 0000:0000  Imp  _LREAD               (KERNEL.82)
 0001:218E       _lseek
 0001:0D06       _ltoa
 0001:2D48       _malloc
 0001:1128       _memicmp
 0001:2AFA       _memset
 0001:11B2       _mkdir
 0001:118A       _rand
 0001:2B96       _read
 0001:2D7C       _realloc
 0001:145E       _remove
 0001:11EE       _rename
 0001:11C6       _rmdir
 0001:0EC6       _segread
 0001:0010       _SETARGV
 0043:0EF4       _sprintf
 0001:1178       _srand
 0001:0D74       _sscanf
 0001:12BE       _STAT
 0001:104C       _strchr
 0001:1076       _strcmpi
 0001:2AC8       _strcpy
 0001:1076       _stricmp
 0001:2208       _strlen
 0001:10E4       _strlwr
 0001:2224       _strncmp
 0001:0CBE       _strncpy
 0001:2800       _strpbrk
 0001:10B8       _strrchr
 0001:1106       _strupr
 0001:0F76       _time
 0048:1402       _timezone
 0048:1408       _tzname
 0001:255A       _tzset
 0001:2A5C       _ungetc
 0001:145E       _unlink
 0048:15B0       __aaltstkovr
 0048:1248       __acfinfo
 0000:9876  Abs  __acrtused
 0000:9876  Abs  __acrtused2
 0001:15C8       __aFldiv
 0001:1664       __aFlmul
 0001:1698       __aFlrem
 0001:2982       __aFlshl
 0001:173A       __aFNaldiv
 0001:175E       __aFNalmul
 0001:1782       __aFNalrem
 0001:17A6       __aFNalshl
 0001:175E       __aFNaulmul
 0001:17C8       __aFNaulrem
 0001:17EC       __aFNaulshr
 0001:180E       __aFuldiv
 0001:1664       __aFulmul
 0001:1870       __aFulrem
 0001:298E       __aFulshr
 0048:1255       __aintdiv
 0048:15C0       __amblksiz
 0001:2CB3       __amsg_exit
 0048:1460       __asizeC
 0048:1461       __asizeD
 0001:2CC1       __astart
 0001:2CAA       __astkovr
 0048:708A       __buferr
 0048:521E       __bufin
 0048:1E3E       __bufout
 0001:225E       __catox
 0048:1448       __cfltcvt_tab
 0048:1290       __child
 0001:2C80       __chkstk
 0001:0B5C       __cinit
 0001:2CAD       __cintDIV
 0001:2858       __cltoasub
 0001:0C7E       __ctermsub
 0048:1298       __ctype
 0048:1298       __ctype_
 0001:2864       __cxtoa
 0048:147C       __days
 0048:126C       __doserrno
 0001:18DC       __dosret0
 0001:18EF       __dosretax
 0001:18E4       __dosreturn
 0048:1269       __dosvermajor
 0048:126A       __dosverminor
 0001:146C       __dos_close
 0001:1481       __dos_creat
 0001:147A       __dos_creatnew
 0001:14A4       __dos_findfirst
 0001:149A       __dos_findnext
 0001:156A       __dos_getdate
 0001:153E       __dos_getdiskfree
 0001:1584       __dos_getdrive
 0001:14C2       __dos_getftime
 0001:1598       __dos_gettime
 0001:14DC       __dos_open
 0001:14F4       __dos_read
 0001:15B2       __dos_setdrive
 0001:1518       __dos_setfileattr
 0001:152A       __dos_setftime
 0001:14FB       __dos_write
 0001:26DE       __dtoxtime
 0001:0C37       __exit
 0048:1259       __fac
 0001:2E43       __ffree
 0001:299A       __filbuf
 0001:2E0B       __fmalloc
 0048:15C8       __fpinit
 0000:9876  Abs  __fptaskdata
 0001:2CB0       __fptrap
 0001:2B28       __getbuf
 0001:28CE       __getdcwd
 0001:1930       __input
 0048:1293       __intno
 0048:1496       __iob
 0048:1536       __iob2
 0001:2614       __isindst
 0048:15AE       __lastiob
 0048:1462       __lpdays
 0001:18FC       __maperror
 0001:2D2D       __myalloc
 0048:126E       __nfile
 0001:2DF0       __nfree
 0001:2DAA       __nmalloc
 0001:2CBC       __NMSG_TEXT
 0001:2CBC       __NMSG_WRITE
 0001:2D47       __nullcheck
 0048:126C       __oserr
 0048:1270       __osfile
 0048:1269       __osmajor
 0048:126A       __osminor
 0048:126B       __osmode
 0048:1269       __osversion
 0048:1292       __ovlflag
 0048:1294       __ovlvec
 0048:128A       __pgmptr
 0048:1267       __psp
 0048:1265       __pspadr
 0001:2E5E       __setargv
 0001:2FF0       __setenvp
 0048:145E       __sigintoff
 0048:145C       __sigintseg
 0001:0FCA       __strdate
 0001:1010       __strtime
 0048:1263       __umaskval
 0048:1284       ___argc
 0048:1286       ___argv
 0048:140C       ___dnames
 0048:1422       ___mnames
 0001:254A       ___tzset

  Address         Publics by Value

 0000:0000  Imp  DLGDIRLIST           (USER.100)
 0000:0000  Imp  SETDLGITEMTEXT       (USER.92)
 0000:0000  Imp  FINDRESOURCE         (KERNEL.60)
 0000:0000  Imp  SETBITMAPBITS        (GDI.106)
 0000:0000  Imp  SETWINDOWTEXT        (USER.37)
 0000:0000  Imp  MAKEPROCINSTANCE     (KERNEL.51)
 0000:0000  Imp  ISDLGBUTTONCHECKED   (USER.98)
 0000:0000  Imp  LINETO               (GDI.19)
 0000:0000  Imp  _LREAD               (KERNEL.82)
 0000:0000  Imp  EXTTEXTOUT           (GDI.351)
 0000:0000  Imp  ANSIUPPER            (KERNEL.79)
 0000:0000  Imp  LOADBITMAP           (USER.175)
 0000:0000  Imp  YIELD                (KERNEL.29)
 0000:0000  Imp  GLOBALALLOC          (KERNEL.15)
 0000:0000  Imp  GETFOCUS             (USER.23)
 0000:0000  Imp  RECTANGLE            (GDI.27)
 0000:0000  Imp  SETERRORMODE         (KERNEL.107)
 0000:0000  Imp  GETCURRENTTIME       (USER.15)
 0000:0000  Imp  ENUMFONTS            (GDI.70)
 0000:0000  Imp  GETWINDOWLONG        (USER.135)
 0000:0000  Imp  ENDDIALOG            (USER.88)
 0000:0000  Imp  GETMENUITEMCOUNT     (USER.263)
 0000:0000  Imp  _LLSEEK              (KERNEL.84)
 0000:0000  Imp  UNLOCKSEGMENT        (KERNEL.24)
 0000:0000  Imp  SETCARETBLINKTIME    (USER.168)
 0000:0000  Imp  GLOBALUNLOCK         (KERNEL.19)
 0000:0000  Imp  GETKEYSTATE          (USER.106)
 0000:0000  Imp  GLOBALFINDATOM       (USER.270)
 0000:0000  Imp  GETCARETBLINKTIME    (USER.169)
 0000:0000  Imp  GETSYSCOLOR          (USER.180)
 0000:0000  Imp  FREEPROCINSTANCE     (KERNEL.52)
 0000:0000  Imp  CREATEFONT           (GDI.56)
 0000:0000  Imp  GETDLGITEMTEXT       (USER.93)
 0000:0000  Imp  SETWINDOWWORD        (USER.134)
 0000:0000  Imp  GETBITMAPBITS        (GDI.74)
 0000:0000  Imp  GETWINDOWTEXT        (USER.36)
 0000:0000  Imp  SETCARETPOS          (USER.165)
 0000:0000  Imp  ENABLEWINDOW         (USER.34)
 0000:0000  Imp  LOADACCELERATORS     (USER.177)
 0000:0000  Imp  READCOMM             (USER.204)
 0000:0000  Imp  CLOSECLIPBOARD       (USER.138)
 0000:0000  Imp  LOCALFREE            (KERNEL.7)
 0000:0000  Imp  FREERESOURCE         (KERNEL.63)
 0000:0000  Imp  GETKEYBOARDSTATE     (USER.222)
 0000:0000  Imp  GETMODULEFILENAME    (KERNEL.49)
 0000:0000  Imp  LOADSTRING           (USER.176)
 0000:0000  Imp  SETDLGITEMINT        (USER.94)
 0000:0000  Imp  FATALEXIT            (KERNEL.1)
 0000:0000  Imp  OPENCLIPBOARD        (USER.137)
 0000:0000  Imp  MOVEWINDOW           (USER.56)
 0000:0000  Imp  TEXTOUT              (GDI.33)
 0000:0000  Imp  DRAWMENUBAR          (USER.160)
 0000:0000  Imp  SETWINDOWLONG        (USER.136)
 0000:0000  Imp  GLOBALFREE           (KERNEL.17)
 0000:0000  Imp  GLOBALREALLOC        (KERNEL.16)
 0000:0000  Imp  GETDC                (USER.66)
 0000:0000  Imp  DIALOGBOX            (USER.87)
 0000:0000  Imp  LOCKRESOURCE         (KERNEL.62)
 0000:0000  Imp  SETCOMMBREAK         (USER.210)
 0000:0000  Imp  _LCLOSE              (KERNEL.81)
 0000:0000  Imp  CREATEIC             (GDI.153)
 0000:0000  Imp  LSTRCPY              (KERNEL.88)
 0000:0000  Imp  GLOBALDELETEATOM     (USER.269)
 0000:0000  Imp  GRAYSTRING           (USER.185)
 0000:0000  Imp  ANSIPREV             (KERNEL.78)
 0000:0000  Imp  GETWINDOWRECT        (USER.32)
 0000:0000  Imp  FILLRECT             (USER.81)
 0000:0000  Imp  DRAWTEXT             (USER.85)
 0000:0000  Imp  UPDATEWINDOW         (USER.124)
 0000:0000  Imp  CHANGEMENU           (USER.153)
 0000:0000  Imp  GLOBALGETATOMNAME    (USER.271)
 0000:0000  Imp  SETFOCUS             (USER.22)
 0000:0000  Imp  GETPROFILEINT        (KERNEL.57)
 0000:0000  Imp  SETROP2              (GDI.4)
 0000:0000  Imp  MESSAGEBEEP          (USER.104)
 0000:0000  Imp  CLEARCOMMBREAK       (USER.211)
 0000:0000  Imp  GLOBALCOMPACT        (KERNEL.25)
 0000:0000  Imp  GETDLGITEMINT        (USER.95)
 0000:0000  Imp  SETTEXTCOLOR         (GDI.9)
 0000:0000  Imp  INITTASK             (KERNEL.91)
 0000:0000  Imp  CHECKRADIOBUTTON     (USER.96)
 0000:0000  Imp  BEGINPAINT           (USER.39)
 0000:0000  Imp  CREATECARET          (USER.163)
 0000:0000  Imp  LOADICON             (USER.174)
 0000:0000  Imp  SENDDLGITEMMESSAGE   (USER.101)
 0000:0000  Imp  FLUSHCOMM            (USER.215)
 0000:0000  Imp  LOADRESOURCE         (KERNEL.61)
 0000:0000  Imp  PEEKMESSAGE          (USER.109)
 0000:0000  Imp  GETMENUSTRING        (USER.161)
 0000:0000  Imp  LSTRCMP              (KERNEL.87)
 0000:0000  Imp  SETTIMER             (USER.10)
 0000:0000  Imp  SETBKMODE            (GDI.2)
 0000:0000  Imp  CREATECOMPATIBLEDC   (GDI.52)
 0000:0000  Imp  POSTMESSAGE          (USER.110)
 0000:0000  Imp  GETINSTANCEDATA      (KERNEL.54)
 0000:0000  Imp  REGISTERCLASS        (USER.57)
 0000:0000  Imp  SETCOMMEVENTMASK     (USER.208)
 0000:0000  Imp  SELECTOBJECT         (GDI.45)
 0000:0000  Imp  PATBLT               (GDI.29)
 0000:0000  Imp  DLGDIRSELECT         (USER.99)
 0000:0000  Imp  GLOBALLOCK           (KERNEL.18)
 0000:0000  Imp  LOADCURSOR           (USER.173)
 0000:0000  Imp  INITAPP              (USER.5)
 0000:0000  Imp  INVALIDATERECT       (USER.125)
 0000:0000  Imp  SETWINDOWSHOOK       (USER.121)
 0000:0000  Imp  GETVERSION           (KERNEL.3)
 0000:0000  Imp  ADDFONTRESOURCE      (GDI.119)
 0000:0000  Imp  GETCOMMSTATE         (USER.202)
 0000:0000  Imp  SETKEYBOARDSTATE     (USER.223)
 0000:0000  Imp  LOCALALLOC           (KERNEL.5)
 0000:0000  Imp  CREATEBITMAP         (GDI.48)
 0000:0000  Imp  GETCLIENTRECT        (USER.33)
 0000:0000  Imp  BITBLT               (GDI.34)
 0000:0000  Imp  GETTEXTFACE          (GDI.92)
 0000:0000  Imp  GETSYSTEMMENU        (USER.156)
 0000:0000  Imp  TRANSLATEACCELERATOR (USER.178)
 0000:0000  Imp  SHOWCARET            (USER.167)
 0000:0000  Imp  MOVETO               (GDI.20)
 0000:0000  Imp  LOCALREALLOC         (KERNEL.6)
 0000:0000  Imp  ISWINDOWVISIBLE      (USER.49)
 0000:0000  Imp  ISWINDOWENABLED      (USER.35)
 0000:0000  Imp  GETMENU              (USER.157)
 0000:0000  Imp  ESCAPECOMMFUNCTION   (USER.214)
 0000:0000  Imp  CALLWINDOWPROC       (USER.122)
 0000:0000  Imp  FLASHWINDOW          (USER.105)
 0000:0000  Imp  SHOWWINDOW           (USER.42)
 0000:0000  Imp  GETTEMPFILENAME      (KERNEL.97)
 0000:0000  Imp  GETWINDOWWORD        (USER.133)
 0000:0000  Imp  CREATEFONTINDIRECT   (GDI.57)
 0000:0000  Imp  DEFWINDOWPROC        (USER.107)
 0000:0000  Imp  VALIDATERECT         (USER.127)
 0000:0000  Imp  CREATEWINDOW         (USER.41)
 0000:0000  Imp  GETCOMMEVENTMASK     (USER.209)
 0000:0000  Imp  LSTRLEN              (KERNEL.90)
 0000:0000  Imp  WAITEVENT            (KERNEL.30)
 0000:0000  Imp  GETPROCADDRESS       (KERNEL.50)
 0000:0000  Imp  SENDMESSAGE          (USER.111)
 0000:0000  Imp  SETCAPTURE           (USER.18)
 0000:0000  Imp  GETOBJECT            (GDI.82)
 0000:0000  Imp  DISPATCHMESSAGE      (USER.114)
 0000:0000  Imp  OPENCOMM             (USER.200)
 0000:0000  Imp  ENABLEMENUITEM       (USER.155)
 0000:0000  Imp  GETPROFILESTRING     (KERNEL.58)
 0000:0000  Imp  ISICONIC             (USER.31)
 0000:0000  Imp  LOADLIBRARY          (KERNEL.95)
 0000:0000  Imp  WRITECOMM            (USER.205)
 0000:0000  Imp  DRAWICON             (USER.84)
 0000:0000  Imp  _LOPEN               (KERNEL.85)
 0000:0000  Imp  SETSCROLLPOS         (USER.62)
 0000:0000  Imp  CREATEDC             (GDI.53)
 0000:0000  Imp  GETDLGITEM           (USER.91)
 0000:0000  Imp  SETCLIPBOARDDATA     (USER.141)
 0000:0000  Imp  KILLTIMER            (USER.12)
 0000:0000  Imp  CHECKMENUITEM        (USER.154)
 0000:0000  Imp  ESCAPE               (GDI.38)
 0000:0000  Imp  COPYRECT             (USER.74)
 0000:0000  Imp  ISDIALOGMESSAGE      (USER.90)
 0000:0000  Imp  GETSTOCKOBJECT       (GDI.87)
 0000:0000  Imp  GETSYSTEMMETRICS     (USER.179)
 0000:0000  Imp  SETSCROLLRANGE       (USER.64)
 0000:0000  Imp  DESTROYWINDOW        (USER.53)
 0000:0000  Imp  GETPARENT            (USER.46)
 0000:0000  Imp  SCROLLWINDOW         (USER.61)
 0000:0000  Imp  GETMODULEHANDLE      (KERNEL.47)
 0000:0000  Imp  MESSAGEBOX           (USER.1)
 0000:0000  Imp  CLOSECOMM            (USER.207)
 0000:0000  Imp  EMPTYCLIPBOARD       (USER.139)
 0000:0000  Imp  HIDECARET            (USER.166)
 0000:0000  Imp  CREATEPEN            (GDI.61)
 0000:0000  Imp  FREELIBRARY          (KERNEL.96)
 0000:0000  Imp  ADJUSTWINDOWRECT     (USER.102)
 0000:0000  Imp  CREATEDIALOG         (USER.89)
 0000:0000  Imp  GLOBALSIZE           (KERNEL.20)
 0000:0000  Imp  GLOBALADDATOM        (USER.268)
 0000:0000  Imp  GETACTIVEWINDOW      (USER.60)
 0000:0000  Imp  DELETEOBJECT         (GDI.69)
 0000:0000  Imp  GETCLIPBOARDDATA     (USER.142)
 0000:0000  Imp  DIALOGBOXINDIRECT    (USER.218)
 0000:0000  Imp  GETDEVICECAPS        (GDI.80)
 0000:0000  Imp  RELEASECAPTURE       (USER.19)
 0000:0000  Imp  STRETCHBLT           (GDI.35)
 0000:0000  Imp  GETTEXTMETRICS       (GDI.93)
 0000:0000  Imp  SETBKCOLOR           (GDI.1)
 0000:0000  Imp  OPENFILE             (KERNEL.74)
 0000:0000  Imp  GETTEXTEXTENT        (GDI.91)
 0000:0000  Imp  POSTQUITMESSAGE      (USER.6)
 0000:0000  Imp  CREATESOLIDBRUSH     (GDI.66)
 0000:0000  Imp  GETSUBMENU           (USER.159)
 0000:0000  Imp  RELEASEDC            (USER.68)
 0000:0000  Imp  DELETEDC             (GDI.68)
 0000:0000  Imp  CHECKDLGBUTTON       (USER.97)
 0000:0000  Imp  GETSCROLLRANGE       (USER.65)
 0000:0000  Imp  LOCKSEGMENT          (KERNEL.23)
 0000:0000  Imp  WINHELP              (USER.171)
 0000:0000  Imp  GETMESSAGE           (USER.108)
 0000:0000  Imp  ENDPAINT             (USER.40)
 0000:0000  Abs  _end
 0000:0000  Imp  WRITEPROFILESTRING   (KERNEL.59)
 0000:0000  Imp  ANSINEXT             (KERNEL.77)
 0000:0000  Imp  TRANSLATEMESSAGE     (USER.113)
 0000:0000  Imp  DESTROYCARET         (USER.164)
 0000:0000  Imp  GETCOMMERROR         (USER.203)
 0000:0000  Imp  SETCOMMSTATE         (USER.201)
 0000:0006  Abs  PLOCALHEAP
 0000:0008  Abs  pAtomTable
 0000:000A  Abs  pStackTop
 0000:000C  Abs  pStackMin
 0000:000E  Abs  pStackBot
 0000:9876  Abs  __acrtused
 0000:9876  Abs  __acrtused2
 0000:9876  Abs  __fptaskdata
 0001:0010       _SETARGV
 0001:0012       WINMAIN
 0001:02AC       WndMainProc
 0001:0A34       DISPATCHDIALOGMESSAGE
 0001:0A74       HelpMessageFilter
 0001:0B5C       __cinit
 0001:0C20       _exit
 0001:0C37       __exit
 0001:0C7E       __ctermsub
 0001:0CBE       _strncpy
 0001:0CE6       _atol
 0001:0CEA       _itoa
 0001:0D06       _ltoa
 0001:0D10       _getenv
 0001:0D74       _sscanf
 0001:0DB6       _filelength
 0001:0E1C       _intdos
 0001:0E66       _intdosx
 0001:0EC6       _segread
 0001:0EDC       _ctime
 0001:0F06       _localtime
 0001:0F76       _time
 0001:0FCA       __strdate
 0001:1010       __strtime
 0001:104C       _strchr
 0001:1076       _stricmp
 0001:1076       _strcmpi
 0001:10B8       _strrchr
 0001:10E4       _strlwr
 0001:1106       _strupr
 0001:1128       _memicmp
 0001:1178       _srand
 0001:118A       _rand
 0001:11B2       _mkdir
 0001:11B9       _chdir
 0001:11C6       _rmdir
 0001:11EE       _rename
 0001:12BE       _STAT
 0001:145E       _remove
 0001:145E       _unlink
 0001:146C       __dos_close
 0001:147A       __dos_creatnew
 0001:1481       __dos_creat
 0001:149A       __dos_findnext
 0001:14A4       __dos_findfirst
 0001:14C2       __dos_getftime
 0001:14DC       __dos_open
 0001:14F4       __dos_read
 0001:14FB       __dos_write
 0001:1518       __dos_setfileattr
 0001:152A       __dos_setftime
 0001:153E       __dos_getdiskfree
 0001:156A       __dos_getdate
 0001:1584       __dos_getdrive
 0001:1598       __dos_gettime
 0001:15B2       __dos_setdrive
 0001:15C8       __aFldiv
 0001:1664       __aFulmul
 0001:1664       __aFlmul
 0001:1698       __aFlrem
 0001:173A       __aFNaldiv
 0001:175E       __aFNaulmul
 0001:175E       __aFNalmul
 0001:1782       __aFNalrem
 0001:17A6       __aFNalshl
 0001:17C8       __aFNaulrem
 0001:17EC       __aFNaulshr
 0001:180E       __aFuldiv
 0001:1870       __aFulrem
 0001:18DC       __dosret0
 0001:18E4       __dosreturn
 0001:18EF       __dosretax
 0001:18FC       __maperror
 0001:1930       __input
 0001:218E       _lseek
 0001:2208       _strlen
 0001:2224       _strncmp
 0001:225E       __catox
 0001:22B2       _bdos
 0001:22F0       _asctime
 0001:238E       _gmtime
 0001:254A       ___tzset
 0001:255A       _tzset
 0001:2614       __isindst
 0001:26DE       __dtoxtime
 0001:2800       _strpbrk
 0001:2858       __cltoasub
 0001:2864       __cxtoa
 0001:28B8       _getcwd
 0001:28CE       __getdcwd
 0001:2982       __aFlshl
 0001:298E       __aFulshr
 0001:299A       __filbuf
 0001:2A5C       _ungetc
 0001:2AC8       _strcpy
 0001:2AFA       _memset
 0001:2B28       __getbuf
 0001:2B96       _read
 0001:2C80       _chkstk
 0001:2C80       __chkstk
 0001:2C80       chkstk
 0001:2CAA       __astkovr
 0001:2CAD       __cintDIV
 0001:2CB0       __fptrap
 0001:2CB3       __amsg_exit
 0001:2CBC       __NMSG_TEXT
 0001:2CBC       __NMSG_WRITE
 0001:2CC1       __astart
 0001:2D2D       __myalloc
 0001:2D47       __nullcheck
 0001:2D48       _malloc
 0001:2D62       _free
 0001:2D7C       _realloc
 0001:2DAA       __nmalloc
 0001:2DF0       __nfree
 0001:2E0B       __fmalloc
 0001:2E43       __ffree
 0001:2E5E       __setargv
 0001:2FF0       __setenvp
 0002:0000       FIRSTCOPYINIT
 0002:03A8       ANOTHERCOPYINIT
 0002:0460       INSTANCEINIT
 0002:0AFE       CMDEXIT
 0002:0B20       PROGRAMABORT
 0002:0B68       PROGRAMWRAPUP
 0002:0C32       CMDABOUT
 0002:0CA0       DlgAbout
 0002:0D74       CMDRUNAPP
 0002:0E16       DlgRunApp
 0003:0000       CMDCONNECT
 0003:0156       KERMITCONNECT
 0003:0198       KERMITHANGUP
 0003:01C0       CMDPAUSE
 0003:01D4       CMDBREAK
 0003:01F0       COMMDATASTATUS
 0003:034C       COMMDATAREAD
 0003:0406       COMMDATAOUTPUT
 0003:0454       COMMCHAROUTPUT
 0003:0482       COMMSTROUTPUT
 0003:05D0       COMMPORTOPEN
 0003:086E       COMMPORTUPDATE
 0003:0A1A       COMMFLUSHBUFFERS
 0003:0AF2       COMMPORTDUMP
 0003:0B4E       MODEMRESET
 0003:0B9A       COMMPORTCLOSE
 0003:0D7E       COMMPORTBREAK
 0003:0DAE       COMMBUFFIL
 0004:0000       INITCOMMUNICATIONS
 0004:0074       TERMCOMMUNICATIONS
 0004:0088       READMODEMPARAMETERS
 0004:01D0       LOADMODEMPARAMETERS
 0004:04DE       SAVEMODEMPARAMETERS
 0004:07D2       LOADCUSTOMPARAMETERS
 0004:0ACC       SAVECUSTOMPARAMETERS
 0005:0000       CMDCOMMUNICATIONS
 0005:006E       CMDMODEM
 0005:011C       DlgCommunications
 0005:0A5A       DlgModem
 0005:0D28       DlgSetting
 0006:0000       INITSESSION
 0006:001A       NEWSESSIONDATA
 0007:0000       CMDSESSION
 0007:007A       DlgSession
 0008:0000       CMDSCREEN
 0008:0014       TERMWRITEDATA
 0008:003E       TERMWRITEBYTE
 0008:0072       TERMWRITENEWLINE
 0008:00B6       TERMWRITECLEAR
 0008:00E4       TERMINALVIRTUALKEY
 0008:087A       MOUSESELECTMSG
 0008:0BE0       MOUSESELECTCLR
 0008:0C72       TERMNAMESCAN
 0008:0D28       TERMMESSAGE
 0008:0DAC       LINETOTERMINAL
 0008:0E14       CHARTOTERMINAL
 0009:0000       CREATETERMINALCHILD
 0009:00C4       DESTROYTERMINALCHILD
 0009:013C       UPDATETERMINAL
 0009:033A       UPDATENEWTERMINAL
 0009:03E4       UPDATETERMINALFONT
 0009:042C       SELECTTERMINAL
 0009:04C8       INITTERMINAL
 0009:04E2       NEWTERMINALDATA
 000A:0000       CMDTERMINAL
 000A:007A       DlgTerminal
 000B:0000       CMDCOPY
 000B:0160       CMDCOPYCAPTURE
 000B:01FE       CMDCOPYFILE
 000B:037A       CMDCOPYNOTES
 000B:0496       CMDCOPYPRINTER
 000B:0548       CMDCOPYSEND
 000C:0000       INITDISPLAY
 000C:001A       NEWDISPLAYDATA
 000D:0000       CMDDISPLAY
 000D:006E       DlgDisplay
 000E:0000       INITXFERINDICATORS
 000E:00B4       RESETXFERINDICATORS
 000E:03C6       UPDATEXFERINDICATORS
 000E:0962       PAINTXFERGRAPHICS
 000E:0AFC       CMDSEND
 000E:0B16       CMDRECEIVE
 000E:0B30       CMDXFER
 000E:0C80       XFERUPLOADBATCH
 000E:0D1E       XFERUPLOADFILE
 000E:0DD0       XFERDOWNLOADFILE
 000F:0000       INITFILETRANSFER
 000F:0014       HIDEFILETRANSFER
 000F:00A2       TERMFILETRANSFER
 000F:00B6       INITPROTOCOL
 000F:00D0       NEWPROTOCOLDATA
 000F:0176       UPDATEPROTOCOL
 000F:01E4       COMPUTEFILESTOSEND
 000F:02BA       CREATEXFERFILE
 000F:03C8       OPENXFERFILE
 0010:0000       CMDPROTOCOL
 0010:0168       XFERFILEREQUEST
 0010:01C0       DlgProtocol
 0010:0474       DlgFileRequest
 0010:052A       CMDASCII
 0010:0598       DlgProtocolAscii
 0010:0C06       DlgProtocolCrosstalk
 0010:0E40       DlgProtocolDart
 0010:11AE       DlgProtocolXModem
 0010:12F4       DlgProtocolCISB
 0010:14D6       DlgProtocolZmodem
 0011:0000       WndMacroProc
 0011:018E       ACTIVATEMACRO
 0011:041E       FLASHMACRO
 0011:0B08       CREATEMACROCHILD
 0011:0B70       DESTROYMACROCHILD
 0011:0B9C       INITMACRO
 0011:0BB6       NEWMACRODATA
 0011:0BF4       UPDATEMACRO
 0012:0000       CMDMACROS
 0012:006E       DlgMacros
 0013:0000       INITFONT
 0013:0234       TERMFONT
 0013:0260       RESETFONT
 0013:02FC       NEWFONTDATA
 0013:0324       UPDATEFONT
 0013:03F0       CMDFONTS
 0013:045E       DlgFonts
 0013:08F0       FontEnumFonts
 0014:0000       INITGLOBAL
 0014:0058       LOADGLOBALDATA
 0014:0328       SAVEGLOBALDATA
 0014:079A       CMDSYSTEM
 0014:0808       DlgSystem
 0015:0000       INITVARIABLE
 0015:017C       TERMVARIABLE
 0015:01BA       CREATEVARIABLEHANDLE
 0015:031A       DELETEVARIABLEHANDLE
 0015:03A4       GETVARIABLEHANDLE
 0015:0496       SETINTVARIABLE
 0015:0636       GETINTVARIABLE
 0015:069C       SETSTRVARIABLE
 0015:08DC       GETSTRVARIABLE
 0015:09EC       GETSTRLENGTH
 0015:0A4E       GETVARIABLELEVEL
 0015:0A8E       LOCKVARIABLE
 0015:0ACC       UNLOCKVARIABLE
 0015:0AFC       ISSTRVARIABLE
 0015:0B4A       PURGEVARIABLELEVEL
 0015:0E3A       IDENTIFYVARIABLE
 0015:0F42       GETSYSVARIABLEANY
 0015:16C0       PUTSYSVARIABLEANY
 0016:0000       CMDCAPTURE
 0016:0346       WRITERAWTOCAPTURE
 0016:038E       WRITESTRTOCAPTURE
 0016:040E       CAPTURECHARS
 0016:0450       FLUSHCAPTUREBUF
 0016:04E2       GETCAPTUREFILE
 0016:0564       DlgCapture
 0017:0000       SETSYSTEMSTATUS
 0017:00CC       RESETSYSTEMSTATUS
 0017:03A8       XTALKSIZE
 0017:0662       XTALKPAINT
 0017:094E       LINKDIALOG
 0017:097C       UNLINKDIALOG
 0018:0000       PROCESSDDE
 0018:08C6       INITDDE
 0018:0962       TERMDDE
 0018:0988       INITIATEDDE
 0018:0A50       POKEDDE
 0018:0B40       REQUESTDDE
 0018:0BF6       EXECUTEDDE
 0018:0CD4       ADVISEDDE
 0018:0DA4       UNADVISEDDE
 0018:0E56       STATUSDDE
 0018:0E8A       SCRIPTENDDDE
 0018:0EBC       SENDDDEDATA
 0018:0F90       TERMINATEDDE
 0018:1256       ADD_ADVISE
 0018:140E       REMOVE_ADVISE
 0018:14DE       ADVISED_ON
 0018:155C       REMOVE_ALL_ADVISE
 0018:15BC       ADVISE
 0018:16F8       UPCASE
 0018:1732       SENDDDEADVDATA
 0019:0000       CMDEXECUTE
 0019:0094       DlgExecute
 0019:07D4       EXECUTESCRIPT
 0019:0982       EXECUTECLOSESCRIPT
 0019:0A06       INTERPRETERSTART
 0019:0B08       INTERPRETERSTOP
 0019:0B8A       INTERPRETERCONTINUE
 0019:0DD0       INTERPRETERKEYBOARD
 0019:4512       GOTOLABEL
 0019:491C       IFENDOFLINE
 001A:0000       INITVIDEO
 001A:006C       GETVIDLINE
 001A:008A       VIDSCROLLUP
 001A:027C       VIDSCROLLDOWN
 001A:03DE       VIDINSERTCHARS
 001A:04F2       VIDDELETECHARS
 001A:05F6       VIDCLEARPAGE
 001A:077E       VIDCLEARAREA
 001A:0930       VIDUPDATESIZE
 001A:0C5C       VIDSEEME
 001A:0CCC       VIDSCROLL
 001A:0F16       VIDCLICKANDPICK
 001A:1016       VIDSELECTAREA
 001A:11AA       VIDSETCARETPOS
 001A:125C       VIDCREATECARET
 001A:12EE       VIDDELETECARET
 001A:1312       VIDNAMESCAN
 001B:0000       EDITSCRIPT
 001B:00CE       SETDLGITEMSTR
 001B:0118       TRANSLATETOKEN
 001B:01CA       SYSTEMUPDATE
 001B:01F0       UPDATETITLE
 001B:02C4       ICONTEXTCHANGED
 001B:04A8       RESETSCREENDISPLAY
 001B:050C       ASKUSERMESSAGESTR
 001B:0566       TELLUSERMESSAGESTR
 001B:05C0       ERRORMSG
 001B:0610       ERRORMESSAGE
 001B:065C       WARNINGMESSAGE
 001B:06A8       CANCELMESSAGE
 001B:06F4       INFOMESSAGE
 001B:072A       FATALERROR
 001B:0776       CMDPLAYBACK
 001B:089C       TERMMACROCHECK
 001B:08B4       CMDPASTE
 001B:09A6       CMDPASTEUPLOAD
 001C:0000       CMDDIAL
 001C:00B8       DlgDial
 001C:0396       DIALNUMBER
 001C:0442       DIALTERM
 001C:0566       DlgDialing
 001C:1280       DlgNoPhone
 001D:0000       CMDNEW
 001D:0098       DATANEW
 001D:0188       CMDOPEN
 001D:029C       DATAOPEN
 001D:034C       CMDSAVE
 001D:03CE       DATASAVE
 001D:049C       CMDSAVEAS
 001D:0568       DATASAVEAS
 001D:06A8       DATACHANGED
 001D:06C0       DATADIALLOAD
 001D:0806       DATASAVEFIRST
 001D:087C       DATAPARAMLOAD
 001D:09F4       DATAPARAMSAVE
 001D:0B04       INITSYSTEMNEWDATA
 001D:0BE0       DATAAUTOOPEN
 001D:0C14       INITDATA
 001D:0E44       DlgNewFile
 001E:0000       CMDPAGESETUP
 001E:006E       CMDPRINT
 001E:0086       CMDPRINTSETUP
 001E:00F4       TOGGLEPRINTER
 001E:015A       PRINTCHAR
 001E:0196       PRINTLINE
 001E:0240       FLUSHPRINTER
 001E:02CC       OPENPRINTER
 001E:04DA       CLOSEPRINTER
 001E:07F4       INITPRINTER
 001E:0816       TERMPRINTER
 001E:0838       DlgPageSetup
 001E:08F6       DlgPrintSetup
 001E:0EE2       AbortProc
 001E:0F2C       AbortDlg
 001F:0000       FILEOPEN
 001F:00DC       FILEREAD
 001F:02EC       FILEREADLINE
 001F:0402       FILEWRITE
 001F:0496       FILEWRITELINE
 001F:052C       FILEGETREC
 001F:05C0       FILEPUTREC
 001F:063E       FILESEEK
 001F:06AC       FILECLOSE
 0020:0000       VSSCREATE
 0020:00FC       VSSDELETE
 0020:0162       INITPERFORMANCE
 0020:017C       TERMPERFORMANCE
 0021:0000       VSSSCROLLMODE
 0021:0144       VSSSCROLLTOGGLE
 0021:0188       VSSADDLINE
 0021:03DE       VSSGETLINE
 0021:04EA       VSSSCROLLDOWN
 0021:05AE       VSSSCROLLUP
 0021:067A       VSSGOTOTOP
 0021:06E4       VSSGOTOBOT
 0022:0000       NEEDCOMPILE
 0022:0134       LOADSCRIPTOBJECT
 0022:0280       SAVESCRIPTOBJECT
 0022:037C       COMPILESCRIPT
 0022:150E       DlgCompile
 0023:0000       DLGBOXINTERPRET
 0023:066E       DlgDlgbox
 0024:0000       ALERTINTERPRET
 0024:0058       DlgAlert
 0025:0000       EVALBOOLEAN
 0025:0086       EVALCHANNEL
 0025:0116       EVALINTEGER
 0025:0194       EVALINTVARIABLE
 0025:0250       EVALRANGE
 0025:02D0       EVALSTRING
 0025:0566       EVALSTRVARIABLE
 0025:0622       EVALTIME
 0025:06D4       EVALINTINTINTINT
 0025:076A       EVALINTINTINTINTSTR
 0025:07BC       EVALINTVAR
 0025:0842       EVALSTRVAR
 0025:08C8       EVALCTLFLAGS
 0025:09D2       EVALCOMMA
 0025:0A02       EVALEOL
 0026:0000       EVALSTRFUNCT
 0027:0000       EVALINTFUNCT
 0028:0000       GENERALERROR
 0028:008C       COMPILERERROR
 0028:00EE       INTERPRETERERROR
 0028:0176       DlgError
 0028:04C6       ERRORTOMSG
 0029:0000       VT102INIT
 0029:00BA       VT102TERM
 0029:00E4       VT102CREATEFONTS
 0029:0112       VT102DELETEFONTS
 0029:016A       VT102UPDATEFONTS
 002A:0000       WndVT102Proc
 002A:0656       VT102CHAROUT
 002A:0822       VT102CHARDBL
 002A:0BFA       TERMINPUT
 002A:0FFE       EMULATORVT102KEY
 002A:2688       TERMRESET
 002A:2846       TERMSETUP
 002B:0000       VT52INIT
 002B:008E       VT52TERM
 002B:00A2       WndVT52Proc
 002B:05F4       VT52CHAROUT
 002B:09F8       EMULATORVT52KEY
 002C:0000       IBM3101INIT
 002C:00D0       IBM3101TERM
 002C:00E4       WndIBM3101Proc
 002C:0636       IBM3101CHAROUT
 002C:0A36       EMULATORIBM3101KEY
 002D:0000       PCIBMINIT
 002D:0094       PCIBMTERM
 002D:0198       WndPCIBMProc
 002D:0C90       EMULATORPCIBMKEY
 002E:0000       VIDTEXINIT
 002E:0082       VIDTEXTERM
 002E:0096       WndVidtexProc
 002E:0478       VIDTEXCHAROUT
 002E:07FE       EMULATORVIDTEXKEY
 002F:0000       INITCISGH
 002F:00FA       CisWndProc
 0030:0000       DLGOPEN
 0030:00D6       DlgFnOpen
 0030:0568       DLGSEND
 0030:0638       DlgFnSend
 0030:0A8C       DLGCHECKOKENABLE
 0030:0AD6       DLGADDCORRECTEXTENSION
 0030:0BCA       DLGCHECKFILENAME
 0030:0C12       DLGSEARCHSPEC
 0031:0000       DLGSAVEAS
 0031:00E8       DlgFnSaveAs
 0031:03FA       DLGINITSAVEAS
 0031:04F0       DLGPFILEINPATH
 0031:0556       DLGADDEXT
 0031:05EC       DLGMERGESTRINGS
 0032:0000       XFERDARTSENDNAME
 0032:01C0       XFERDARTRECVNAME
 0032:035C       XFERDARTSERVER
 0032:0478       XFERDARTTERM
 0032:0574       DlgDart
 0033:0000       XFERCROSSSENDNAME
 0033:01A4       XFERCROSSRECVNAME
 0033:0362       XFERCROSSSERVER
 0033:04EE       XFERCROSSTERM
 0033:05DE       DlgCross
 0034:0000       XFERXMODEMSENDNAME
 0034:01FC       XFERXMODEMRECVNAME
 0034:03EE       XFERXMODEMTERM
 0034:04DE       DlgXModem
 0035:0000       XFERYMODEMSENDNAME
 0035:01D2       XFERYMODEMRECVNAME
 0035:0368       XFERYMODEMTERM
 0035:0458       DlgYModem
 0036:0000       ZMODEMCLOSEFILE
 0036:0052       SENDCOMMCHARS
 0036:00B8       UPDATEERRORCOUNT
 0036:00F8       XFERZMODEMSENDNAME
 0036:02A6       XFERZMODEMRECVNAME
 0036:068A       DlgZmodem
 0036:162A       LONG_TO_DATETIME
 0036:1C28       LONG_TO_OCTAL
 0037:0000       XFERASCIIUPLOADNAME
 0037:018E       XFERASCIIUPLOADFILE
 0037:024C       XFERASCIITERM
 0037:0332       DlgASCII
 0038:0000       CMDKERMIT
 0038:006A       XFERKERMITSENDNAME
 0038:016A       XFERKERMITRECVNAME
 0038:01E0       XFERKERMITREQUESTNAME
 0038:024A       INITKERMIT
 0038:0430       TERMKERMIT
 0039:0000       DlgKermit
 0039:0576       KERMITUSERABORT
 0039:0738       ABORTSERVER
 0039:082A       SNDINIT
 0039:0866       RCVYPAR
 0039:0884       RCVINIT
 0039:08B0       RCVSTART
 0039:0906       RCVFILE
 0039:0A3E       RCVTEXT
 0039:0A64       RCVATTR
 0039:0B38       RCVDATA
 0039:0DE2       RCVEOF
 0039:0E9A       SNDPAR
 0039:1068       RCVPAR
 0039:111C       RCVSERVERCOMMAND
 0039:1136       REQUESTFILECOMMAND
 0039:13B2       SENDSTART
 0039:1422       SENDANOTHER
 0039:1438       SENDSTARTACK
 0039:144E       SENDHEADER
 0039:14DA       SENDATTR
 0039:14F2       SENDDATA
 0039:157C       SENDEOF
 0039:1620       SENDEOB
 0039:1838       GETOURPARAMS
 0039:18FC       KERMITMESSAGE
 0039:1996       KERMITREMOTEMESSAGE
 0039:19DE       KERMITGETFILE
 0039:1A5A       KERMITRECEIVE
 0039:1ACA       KERMITSENDFILE
 0039:1C50       RECEIVEPACKET
 0039:1FCE       PACKETTIMEOUT
 0039:200A       SENDPACKETX
 0039:2032       SENDPACKET
 0039:22A8       ACKPACKET
 0039:22D8       ACKSPACKET
 0039:2318       RESEND
 0039:2360       RERECEIVE
 0039:23C8       DECODEBUFFDATA
 0039:2552       KERMITOPEN
 0039:25C8       KERMITCLOSE
 0039:2658       KERMITFLUSH
 0039:26B6       KERMITFILL
 0039:2716       KERMITUNGET
 003A:0000       KERMITFILENAME
 003A:00EA       KERMITCONVERT
 003B:0000       KERMITCOMMAND
 003C:0000       CREATEKERMITCHILD
 003C:00B6       DESTROYKERMITCHILD
 003C:00E4       WndKermitProc
 003C:049E       SubKermitProc
 003D:0000       XFERQUICKBSENDNAME
 003D:00C0       XFERQUICKBRECVNAME
 003D:00F2       XFERQUICKBSTART
 003D:0228       XFERQUICKBTERM
 003D:02F0       DlgQuickB
 003D:0F56       RESUMEXFERFILE
 003E:0000       CREATESTATUSCHILD
 003E:0076       DESTROYSTATUSCHILD
 003E:00A2       WndStatProc
 003F:0000       CREATEINFOCHILD
 003F:006C       DESTROYINFOCHILD
 003F:0098       INFODISPLAY
 003F:00F2       INFODISPLAYMSG
 003F:015C       WndInfoProc
 0040:0000       CREATEINPUTCHILD
 0040:00C8       DESTROYINPUTCHILD
 0040:00F4       InputSubClass
 0041:0000       CMDNOTES
 0041:0018       TOGGLENOTES
 0041:00A4       DlgNotes
 0042:0000       CMDHELPINDEX
 0042:007C       CMDHELPTOPIC
 0042:0106       DlgHelp1
 0042:02FE       DlgHelp2
 0043:0000       SPAWNAPP
 0043:00C8       STRRIGHTTRIM
 0043:010A       CHANGEMENUMSG
 0043:0142       CHANGEMENUMSG1
 0043:019C       CHANGEMENUTEXT
 0043:02BC       LIBDESTORE
 0043:03E8       LIBENSTORE
 0043:0494       WHICHRADIOBUTTON
 0043:04D2       GETDLGITEMDATA
 0043:0510       GETDLGITEMPATH
 0043:0592       SETDLGITEMDATA
 0043:05CC       SETDLGITEMLENGTH
 0043:05F8       SETDLGITEMLONG
 0043:0636       SETDLGITEMPATH
 0043:06A8       CREATEPATH
 0043:07F6       LMEMCMP
 0043:084C       LMEMCPY
 0043:0898       LMEMSET
 0043:08D0       LIBBINTOASC
 0043:094A       LIBASCTOBIN
 0043:09BA       LIBSTRTOINT
 0043:0C74       LIBFILTERSTRING
 0043:0CC2       SETSCROLLLOCK
 0043:0E9E       LIBDELAY
 0043:0EF4       _sprintf
 0044:0000       XLATERROR
 0044:006E       GETPROFILEDATA
 0044:00C6       WRITEPROFILEDATA
 0044:014E       ISPATHAVAILABLE
 0044:01A0       ISDRIVEREADY
 0044:0256       VALIDATEDISKDRIVE
 0044:02DA       VALIDATEPATH
 0044:03D4       ISENOUGHDISKSPACE
 0044:0436       STRIPPATH
 0044:0478       STRIPNAME
 0044:04C6       SETDIRPATH
 0044:05DC       SETFULLPATH
 0044:0612       SETFILEPATH
 0044:0632       SETPATHFILE
 0044:0652       SETPATH
 0044:0672       LIBGETLINE
 0044:06FC       SEEKTOENDOFFILE
 0045:0000       SETCOLORBAR
 0045:0034       GETCOLORBAR
 0045:005A       REGISTERCOLORBARCONTROL
 0045:00E6       CtlColorBarProc
 0046:0000       DOSCHGFILEPTR
 0046:0064       DOSQFILEINFO
 0046:0160       DOSCLOSE
 0046:0192       DOSDELETE
 0046:01D2       DOSMOVE
 0046:022E       DOSOPEN
 0046:02B4       DOSREAD
 0046:02EC       DOSWRITE
 0046:0324       DOSCOPY
 0046:0430       DOSCHDIR
 0046:0470       DOSQCURDIR
 0047:0004       INT21FUNCTION4B
 0047:0046       PINT21FUNCTION4B
 0048:0004       rsrvptrs
 0048:0010       DIALOGCNT
 0048:0196       FALWAYSCOMPILE
 0048:0222       HINFOFONT
 0048:0224       HMACROFONT
 0048:0266       BHELPACTIVE
 0048:026A       LTIMELASTRECV
 0048:04DE       FTERMFOCUSACTIVE
 0048:04DF       FTERMCARETACTIVE
 0048:04E0       FTERMPAUSE
 0048:04E2       CHRATTRCOLOR
 0048:050A       HCHILDTERMINAL
 0048:05F4       CRC_TABLE
 0048:0810       HCHILDMACRO
 0048:0818       FCODESAVE
 0048:08F0       HOBJECTCODE
 0048:091E       HCHILDSTATUS
 0048:0994       HCHILDINFO
 0048:0A1C       HCHILDINPUT
 0048:0A46       HNOTEDLG
 0048:0EDE       CRCTAB
 0048:1168       HKERMITCHILD
 0048:1214       SPRINTGATE
 0048:1216       SPRINTTERM
 0048:1242       ADV_LIST
 0048:1248       __acfinfo
 0048:1255       __aintdiv
 0048:1259       __fac
 0048:1261       _errno
 0048:1263       __umaskval
 0048:1265       __pspadr
 0048:1267       __psp
 0048:1269       __osversion
 0048:1269       __osmajor
 0048:1269       __dosvermajor
 0048:126A       __dosverminor
 0048:126A       __osminor
 0048:126B       __osmode
 0048:126C       __doserrno
 0048:126C       __oserr
 0048:126E       __nfile
 0048:1270       __osfile
 0048:1284       ___argc
 0048:1286       ___argv
 0048:1288       _environ
 0048:128A       __pgmptr
 0048:1290       __child
 0048:1292       __ovlflag
 0048:1293       __intno
 0048:1294       __ovlvec
 0048:1298       __ctype_
 0048:1298       __ctype
 0048:1402       _timezone
 0048:1406       _daylight
 0048:1408       _tzname
 0048:140C       ___dnames
 0048:1422       ___mnames
 0048:1448       __cfltcvt_tab
 0048:145C       __sigintseg
 0048:145E       __sigintoff
 0048:1460       __asizeC
 0048:1461       __asizeD
 0048:1462       __lpdays
 0048:147C       __days
 0048:1496       __iob
 0048:1536       __iob2
 0048:15AE       __lastiob
 0048:15B0       __aaltstkovr
 0048:15B4       STKHQQ
 0048:15C0       __amblksiz
 0048:15C8       __fpinit
 0048:15E0       _edata
 0048:1AA0       CBROOTNAMEMAX
 0048:1AA2       WFIRSTFREE
 0048:1AA4       FCOMMSTATEXOFF
 0048:1AA5       FCOMPILEONLY
 0048:1AA6       LPVARIABLEDATA
 0048:1AAA       SZXFERFILEPATH
 0048:1B2A       SVSSCURLINEBUF
 0048:1C34       BTERMECHO
 0048:1C36       NERRORCODE
 0048:1C38       DWXFERTOTALBYTES
 0048:1C3C       NPRINTX
 0048:1C3E       CNUMBERLOOP
 0048:1C40       PCOMMBUFPTR
 0048:1C42       NCOMMOVERRUNERRORS
 0048:1C44       BDIRECTION
 0048:1C46       NPRINTY
 0048:1C48       NSYSFONTHEIGHT
 0048:1C4A       WHELPDIALOG
 0048:1C4C       SZPRINTDATE
 0048:1C56       PFS
 0048:1C58       HTERMINALDC
 0048:1C5A       NSELECTX1
 0048:1C5C       NSELECTY1
 0048:1C5E       VIDCLIENT
 0048:1C66       SZPRINTTIME
 0048:1C70       NSELECTX2
 0048:1C72       FHIDEXFERWINDOW
 0048:1C74       NSELECTY2
 0048:1C76       BCAPTUREON
 0048:1C78       FMOUSECURSOR
 0048:1C7A       HFILEHANDLES
 0048:1C8A       LPCOMPDLG
 0048:1C8E       NERRORFLAG
 0048:1C90       AUNADVISEITEM
 0048:1C92       BDEBUGEMULATION
 0048:1C94       WCARETBLINKTIME
 0048:1C96       FCOMMSTSXON
 0048:1C97       FLOWRESDISPLAY
 0048:1C98       HINFOUSERMENU
 0048:1C9A       HWNDINST
 0048:1C9C       WHANDLES
 0048:1C9E       FCAPSLOCK
 0048:1CA0       NSTACK
 0048:1CA2       NSTACKADDR
 0048:1CA4       WXFERTOTALFILES
 0048:1CA6       NFILEMODES
 0048:1CB6       WHELPTOPIC
 0048:1CB8       RGBOPENSAVE
 0048:1CBA       WLINE
 0048:1CBC       NVSSCURLINECNT
 0048:1CBE       NICONTEXTX
 0048:1CC0       XFER
 0048:1CF6       FMOUSEDOWN
 0048:1CF8       SZAPPNAME
 0048:1D08       BDEBUGXFER
 0048:1D0A       NKERMITSTATUS
 0048:1D0C       SZRESPONSEBUF
 0048:1D0E       SZMATCHEDSTRING
 0048:1D30       NSAVECHRX
 0048:1D32       SZAPPTITLE
 0048:1D52       NSAVECHRY
 0048:1D54       NTERMERASE
 0048:1D56       NICONTEXTY
 0048:1D58       LPABORTDLG
 0048:1D5C       WGOSUBLINE
 0048:1D6C       SZCWD
 0048:1DEC       SZECF
 0048:1E3E       __bufout
 0048:203E       PCLTOEDIT
 0048:204E       SZXTALKEXEPATH
 0048:2080       NVSSCURLINEPOS
 0048:2082       CICONMODE
 0048:2084       BTERMTABS
 0048:2108       WSTACKADDR
 0048:2188       PFPSAVE
 0048:218A       CTERMLEDS
 0048:218C       SZEOF
 0048:21DE       BTERMLFCR
 0048:21E0       NCHANNEL
 0048:21E2       AAPP
 0048:21E4       BCARETDISABLED
 0048:21E6       BTERMPFLG
 0048:21E8       NSTACKHIGH
 0048:21EA       WXFERCONSECERRORS
 0048:21EC       SZFNF
 0048:223E       BTERMQFLG
 0048:2240       WHELPMENU
 0048:2242       DWXFERCURRBYTES
 0048:2246       NTERMMAXCOL
 0048:2248       FSECRET
 0048:224A       CHARPRINTWIDTH
 0048:224C       NWORKCHOICE
 0048:224E       STERMFILENAME
 0048:225E       PFTCB
 0048:2260       NPRIVIDPAGE
 0048:3B50       HICONFONT
 0048:3B52       AINITTOPIC
 0048:3B54       CMACROROWS
 0048:3B56       BTERMNOAUTOREPEAT
 0048:3B58       NTERMCS
 0048:3B60       SCOMMFILENAME
 0048:3B70       HSYSFONT
 0048:3B72       NVSSPAGESUSED
 0048:3B74       BTERMESCAPE
 0048:3B76       NTERMMARGINBOT
 0048:3B78       NKERMITMODE
 0048:3B7A       IOSTATUS
 0048:3B7C       SZDATACURFILE
 0048:3B8C       NTERMMARGINTOP
 0048:3B8E       TERMCLIENT
 0048:3B96       NCONNECTSPEED
 0048:3B98       NSYSFONTWIDTH
 0048:3B9A       CZMODEMSEQ
 0048:3B9C       NTERMWORKINX
 0048:3B9E       LPNOTEDLG
 0048:3BA2       BYSCROLLBARHEIGHT
 0048:3BA4       NCOMMCOUNT
 0048:3BA6       FCONNECTARQ
 0048:3BA8       NTERMCHRX
 0048:3BAA       NCOMMFRAMINGERRORS
 0048:3BAC       NTERMCHRY
 0048:3BAE       NCOMMWORKINX
 0048:3BB0       BTERMREVR
 0048:3BB2       COMM
 0048:3CC0       SZEXT
 0048:3D12       SZIFN
 0048:3D64       FILEXFER
 0048:5164       RGBOPENTEMP
 0048:51EC       NVSSLASTLINELEN
 0048:51EE       FMENUMODE
 0048:51EF       SZOUTNUMBER
 0048:5218       BPRINTERON
 0048:521A       FBACKUPS
 0048:521C       NPRINTLINENO
 0048:521E       __bufin
 0048:541E       BTERMFEEDPRINT
 0048:5420       BKEYOUT
 0048:5422       NSAVECSET
 0048:5424       FAUTOAPPEND
 0048:5426       NCOMMSTSTIME
 0048:5428       NTERMOFFX
 0048:542A       NMOUSEATX
 0048:542C       NTERMOFFY
 0048:542E       HINFOEDITMENU
 0048:5430       CDEFINPUTFILE
 0048:5432       AADVISEITEMS
 0048:5466       NMOUSEATY
 0048:5468       NPRINTPAGENO
 0048:546A       LPVSSPAGES
 0048:54AA       WSTACKLINE
 0048:552A       LXFERBYTECHECK
 0048:552E       COMSTAT
 0048:5534       FONT
 0048:554A       FPAUSEON
 0048:554C       FAUTOBACKUP
 0048:554E       FXFERDIRECTION
 0048:5550       PPRIVIDLINE
 0048:5580       SZEXTSAVE
 0048:5582       CDEFOUTPUTFILE
 0048:5584       CHARPRINTHEIGHT
 0048:5586       NSAVEATTR
 0048:5588       HPCIBMFONTS
 0048:5590       ATOPICS
 0048:5592       BTERMLCKKEY
 0048:5594       LPCOMMEVENT
 0048:5598       DISP
 0048:55AC       NSCROLLTYPE
 0048:55AE       LPOBJECTCODE
 0048:55B2       BSAVEORIGIN
 0048:55B4       LPABORTPROC
 0048:55B8       CMACROROW
 0048:55BC       HWNDDDES
 0048:55CE       SZMSG
 0048:5672       HINFOHELPMENU
 0048:5674       SZCAPTUREBUF
 0048:56FC       TERM
 0048:5754       SZSCRIPTNAME
 0048:5764       SZHELPPATH
 0048:57A0       HINFOFILEMENU
 0048:57A2       TERMINAL
 0048:57A4       NCOMMPORTMEMORY
 0048:57A6       HCOMPDLG
 0048:57A8       BABORT
 0048:57AA       FILEFIND
 0048:57D5       BDEBUGKERMIT
 0048:57D6       NGOSUBINX
 0048:57D8       HWND
 0048:57DA       CPRINTBUF
 0048:5860       NCOMMEVENT
 0048:5862       FPASTECRLF
 0048:5863       FTERMVT52MODE
 0048:5864       HXFERDLG
 0048:5866       FDEMOSTEP
 0048:5867       SESS
 0048:5A80       BSAVEWRAP
 0048:5A82       HPOKEMEM
 0048:5A84       BKERMITNONSERVER
 0048:5A86       HVT102FONTS
 0048:5AA6       HHANDLEDATA
 0048:5AA8       CTERMATTR
 0048:5AA9       FDEMOPAUSE
 0048:5AAA       FISACTIVE
 0048:5AAC       FCOMMSTSRLSD
 0048:5AAD       CTERMFONTCOLOR
 0048:5AAE       SZSCC
 0048:5B00       SZREF
 0048:5B52       NXFERBLOCKSIZE
 0048:5B54       BTERMALTCUR
 0048:5B56       BCONNECTED
 0048:5B58       FSELECTEDAREA
 0048:5B5A       SZFILENAMESAVE
 0048:5B5C       HVARIABLEDATA
 0048:5B5E       NTERMCSET
 0048:5B60       NERRORSAVE
 0048:5B62       NCUREMULATOR
 0048:5B64       HABORTDLGWND
 0048:5B66       BTERMALTKEY
 0048:5B68       SINFOMESSAGE
 0048:5BA8       BKEYIN
 0048:5BAA       NVERTRES
 0048:5BAC       COMDCB
 0048:5BC6       NINITCHANNEL
 0048:5BC8       HVSSPAGES
 0048:5BE8       AINITAPP
 0048:5BEA       WXFERLASTERROR
 0048:5BEC       DCOMMBUFFER
 0048:5DEC       NVIDCARETWIDTH
 0048:5DEE       HADVISEMEM
 0048:5DF0       PSZEXT
 0048:5DF2       HINFOCONFMENU
 0048:5DF4       SZLDNUMBER
 0048:5E1E       CTERMBUF
 0048:5E2E       CICONTYPE
 0048:5E30       BTERMORIGIN
 0048:5E32       LXFERFILESIZE
 0048:5E36       CCOMMPORT
 0048:5E37       FMAXIMIZED
 0048:5E38       FMONODISPLAY
 0048:5E3A       LXFERFILEBYTES
 0048:5E3E       NCURFONTHEIGHT
 0048:5E40       LPXFERDLG
 0048:5E44       OFSTRTEMP
 0048:5ECC       NTERMINX
 0048:5ECE       SZTEMPNAME
 0048:5F20       HINFOSESSMENU
 0048:5F22       APOKEITEM
 0048:5F24       BDEBUGDDE
 0048:5F25       FUNTITLED
 0048:5F26       SVSSOLDLINEPOS
 0048:5F28       FXFERCHANGEDCOMM
 0048:5F2A       NCOMMPARITYERRORS
 0048:5F2C       AFORMATS
 0048:5F2E       BTERMWRAP
 0048:5F30       SZFILENAMETEMP
 0048:5F82       HPRINTDC
 0048:5F84       BDISPLAYON
 0048:5F86       WXFERCURRFILES
 0048:5F88       LICONPARM1
 0048:5F8C       WXFERTOTALERRORS
 0048:5F8E       HINFOWINDMENU
 0048:5F90       LPHANDLEDATA
 0048:5F94       BTERMCNTLPRINT
 0048:5F96       WSTACKTYPE
 0048:6016       NXFERRCVWAIT
 0048:6018       LICONPARM2
 0048:601C       NHORZRES
 0048:601E       PSZAPPNAME
 0048:6020       SZNOTES
 0048:6420       NTERMWNDX
 0048:6422       WSYSTEMSTATE
 0048:6424       STERMWORKNAME
 0048:6434       NTERMWNDY
 0048:6436       MACRO
 0048:6EB6       BTERMINSERT
 0048:6EB8       HEXECUTECMD
 0048:6EBA       EXTPRINTLEADING
 0048:6EBC       SVERSION
 0048:6EBE       NVSSLASTLINEINX
 0048:6EC0       SCOMMWORKNAME
 0048:6ED0       FHOSTSCRIPT
 0048:6ED2       NREQUESTVAR
 0048:6ED4       BTERMMODEPRINT
 0048:6ED6       SZMANUALNUMBER
 0048:6F16       FCAPTUREPAUSE
 0048:6F17       FDATACHANGED
 0048:6F18       BYSCROLLBARWIDTH
 0048:6F1A       PSZNEWNAME
 0048:6F1C       NRESPONSELEN
 0048:6F1E       FCOMMBUFERR
 0048:6F20       HWNDMENU
 0048:6F22       ATOPIC
 0048:6F24       SZICONTEXT
 0048:6F2C       SZCAPTURENAME
 0048:6F3C       FFILEFLAGS
 0048:6F44       WADDR
 0048:6F46       BCURFONTCHARSET
 0048:6F48       WSYSTEM
 0048:6F4A       NTERMEXTX
 0048:6F4C       DATAFILESTRUCT
 0048:6FD4       SZDLGMSG
 0048:7078       LTIMEINITSENT
 0048:707C       NTERMEXTY
 0048:707E       NVSSFIRSTLINEINX
 0048:7080       NCAPTUREINX
 0048:7082       NCOMMBUFCNT
 0048:7084       NCURSORATX
 0048:7086       BDEBUGSCRIPT
 0048:7088       WXFERBLOCKCOUNT
 0048:708A       __buferr
 0048:728A       FTERMGRAPHICSON
 0048:728B       FNUMSLOCK
 0048:728C       FMANUALDIAL
 0048:728E       HCURFONT
 0048:7290       ASTATUS
 0048:7292       NCURSORATY
 0048:7294       WGOSUBADDR
 0048:72A4       SZEDITOR
 0048:72CE       ASYSITEMS
 0048:72D0       NCURSORTOX
 0048:72D2       AREQUESTITEM
 0048:72D4       SZSTARTUPSCRIPT
 0048:72FE       NCURFONTWIDTH
 0048:7300       HACCELTABLE
 0048:7302       NCOMMID
 0048:7304       FVT102FONT
 0048:7306       HDEMOFILE
 0048:7308       NKEYBUFFER
 0048:7318       NDDESESSIONS
 0048:731A       NCURSORTOY
 0048:731C       NSCROLLMEMORY
 0048:731E       POFSTR
 0048:7320       NCOMMTIMERDELAY
 0048:7322       BHELPTOPIC
 0048:7324       LPHELPMESSAGEFILTER
 0048:7328       CTERMFONTATTR
 0048:732A       BTERMAUTOPRINT
 0048:732C       NSAVEERASE
 0048:732E       DIALOGS
 0048:734E       MODEM
 0048:7532       AADVISEITEM
 0048:7534       NICONRATE
 0048:7536       PFP
 0048:7538       FTIMEOUT
 0048:753A       WVIDCARETBLINKTIME
 0048:753C       LTIMECONNECTED
 0048:7540       BPRINTERROR

Program entry point at 0001:2CC1
